(lp1
(dp2
S'autoencoder_model'
p3
S'../models/shallow-models/30C.1025-128-1025.100ep-200ba.h5'
p4
sS'inferred_hlr'
p5
(lp6
(F0
(imusical.theory.chord
Chord
(dp7
S'notes'
p8
((imusical.theory.note
Note
(dp9
S'index'
p10
I44
sb(imusical.theory.note
Note
(dp11
g10
I48
sb(imusical.theory.note
Note
(dp12
g10
I51
sbtp13
sbF1
tp14
a(F1
(imusical.theory.chord
Chord
(dp15
g8
((imusical.theory.note
Note
(dp16
g10
I51
sb(imusical.theory.note
Note
(dp17
g10
I55
sb(imusical.theory.note
Note
(dp18
g10
I58
sbtp19
sbF1
tp20
a(F2
(imusical.theory.chord
Chord
(dp21
g8
((imusical.theory.note
Note
(dp22
g10
I41
sb(imusical.theory.note
Note
(dp23
g10
I44
sb(imusical.theory.note
Note
(dp24
g10
I48
sbtp25
sbF1
tp26
a(F3
(imusical.theory.chord
Chord
(dp27
g8
((imusical.theory.note
Note
(dp28
g10
I49
sb(imusical.theory.note
Note
(dp29
g10
I53
sb(imusical.theory.note
Note
(dp30
g10
I56
sbtp31
sbF1
tp32
a(F0
(imusical.theory.chord
Chord
(dp33
g8
((imusical.theory.note
Note
(dp34
g10
I55
sbtp35
sbF0.25
tp36
a(F0.25
(imusical.theory.chord
Chord
(dp37
g8
((imusical.theory.note
Note
(dp38
g10
I53
sbtp39
sbF0.25
tp40
a(F0.5
(imusical.theory.chord
Chord
(dp41
g8
((imusical.theory.note
Note
(dp42
g10
I55
sbtp43
sbF0.25
tp44
a(F0.75
(imusical.theory.chord
Chord
(dp45
g8
((imusical.theory.note
Note
(dp46
g10
I60
sbtp47
sbF0.25
tp48
a(F1
(imusical.theory.chord
Chord
(dp49
g8
((imusical.theory.note
Note
(dp50
g10
I54
sbtp51
sbF0.25
tp52
a(F1.25
(imusical.theory.chord
Chord
(dp53
g8
((imusical.theory.note
Note
(dp54
g10
I51
sbtp55
sbF0.25
tp56
a(F1.5
(imusical.theory.chord
Chord
(dp57
g8
((imusical.theory.note
Note
(dp58
g10
I49
sbtp59
sbF0.25
tp60
a(F1.75
(imusical.theory.chord
Chord
(dp61
g8
((imusical.theory.note
Note
(dp62
g10
I43
sbtp63
sbF0.25
tp64
a(F2
(imusical.theory.chord
Chord
(dp65
g8
((imusical.theory.note
Note
(dp66
g10
I53
sbtp67
sbF0.25
tp68
a(F2.25
(imusical.theory.chord
Chord
(dp69
g8
((imusical.theory.note
Note
(dp70
g10
I43
sbtp71
sbF0.25
tp72
a(F2.5
(imusical.theory.chord
Chord
(dp73
g8
((imusical.theory.note
Note
(dp74
g10
I48
sbtp75
sbF0.25
tp76
a(F2.75
(imusical.theory.chord
Chord
(dp77
g8
((imusical.theory.note
Note
(dp78
g10
I49
sbtp79
sbF0.25
tp80
a(F3
(imusical.theory.chord
Chord
(dp81
g8
((imusical.theory.note
Note
(dp82
g10
I51
sbtp83
sbF0.25
tp84
a(F3.25
(imusical.theory.chord
Chord
(dp85
g8
((imusical.theory.note
Note
(dp86
g10
I53
sbtp87
sbF0.25
tp88
a(F3.5
(imusical.theory.chord
Chord
(dp89
g8
((imusical.theory.note
Note
(dp90
g10
I55
sbtp91
sbF0.25
tp92
a(F3.75
(imusical.theory.chord
Chord
(dp93
g8
((imusical.theory.note
Note
(dp94
g10
I49
sbtp95
sbF0.25
tp96
asS'observed_loss'
p97
cnumpy.core.multiarray
scalar
p98
(cnumpy
dtype
p99
(S'f4'
I0
I1
tRp100
(I3
S'<'
NNNI-1
I-1
I0
tbS'\xfc*\x8aG'
tRp101
sS'experiment_id'
p102
S'3V5'
p103
sS'song'
p104
S'song-3V5-0.wav'
p105
sS'inference_duration'
p106
F171.29634714126587
sS'song_hlr'
p107
(lp108
(F0
(imusical.theory.chord
Chord
(dp109
g8
((imusical.theory.note
Note
(dp110
g10
I44
sb(imusical.theory.note
Note
(dp111
g10
I48
sb(imusical.theory.note
Note
(dp112
g10
I51
sbtp113
sbF1
tp114
a(F1
(imusical.theory.chord
Chord
(dp115
g8
((imusical.theory.note
Note
(dp116
g10
I51
sb(imusical.theory.note
Note
(dp117
g10
I55
sb(imusical.theory.note
Note
(dp118
g10
I58
sbtp119
sbF1
tp120
a(F2
(imusical.theory.chord
Chord
(dp121
g8
((imusical.theory.note
Note
(dp122
g10
I53
sb(imusical.theory.note
Note
(dp123
g10
I56
sb(imusical.theory.note
Note
(dp124
g10
I60
sbtp125
sbF1
tp126
a(F3
(imusical.theory.chord
Chord
(dp127
g8
((imusical.theory.note
Note
(dp128
g10
I49
sb(imusical.theory.note
Note
(dp129
g10
I53
sb(imusical.theory.note
Note
(dp130
g10
I56
sbtp131
sbF1
tp132
a(F0
(imusical.theory.chord
Chord
(dp133
g8
((imusical.theory.note
Note
(dp134
g10
I55
sbtp135
sbF0.25
tp136
a(F0.25
(imusical.theory.chord
Chord
(dp137
g8
((imusical.theory.note
Note
(dp138
g10
I53
sbtp139
sbF0.25
tp140
a(F0.5
(imusical.theory.chord
Chord
(dp141
g8
((imusical.theory.note
Note
(dp142
g10
I55
sbtp143
sbF0.25
tp144
a(F0.75
(imusical.theory.chord
Chord
(dp145
g8
((imusical.theory.note
Note
(dp146
g10
I53
sbtp147
sbF0.25
tp148
a(F1
(imusical.theory.chord
Chord
(dp149
g8
((imusical.theory.note
Note
(dp150
g10
I46
sbtp151
sbF0.25
tp152
a(F1.25
(imusical.theory.chord
Chord
(dp153
g8
((imusical.theory.note
Note
(dp154
g10
I51
sbtp155
sbF0.25
tp156
a(F1.5
(imusical.theory.chord
Chord
(dp157
g8
((imusical.theory.note
Note
(dp158
g10
I49
sbtp159
sbF0.25
tp160
a(F1.75
(imusical.theory.chord
Chord
(dp161
g8
((imusical.theory.note
Note
(dp162
g10
I43
sbtp163
sbF0.25
tp164
a(F2
(imusical.theory.chord
Chord
(dp165
g8
((imusical.theory.note
Note
(dp166
g10
I41
sbtp167
sbF0.25
tp168
a(F2.25
(imusical.theory.chord
Chord
(dp169
g8
((imusical.theory.note
Note
(dp170
g10
I43
sbtp171
sbF0.25
tp172
a(F2.5
(imusical.theory.chord
Chord
(dp173
g8
((imusical.theory.note
Note
(dp174
g10
I48
sbtp175
sbF0.25
tp176
a(F2.75
(imusical.theory.chord
Chord
(dp177
g8
((imusical.theory.note
Note
(dp178
g10
I49
sbtp179
sbF0.25
tp180
a(F3
(imusical.theory.chord
Chord
(dp181
g8
((imusical.theory.note
Note
(dp182
g10
I51
sbtp183
sbF0.25
tp184
a(F3.25
(imusical.theory.chord
Chord
(dp185
g8
((imusical.theory.note
Note
(dp186
g10
I53
sbtp187
sbF0.25
tp188
a(F3.5
(imusical.theory.chord
Chord
(dp189
g8
((imusical.theory.note
Note
(dp190
g10
I55
sbtp191
sbF0.25
tp192
a(F3.75
(imusical.theory.chord
Chord
(dp193
g8
((imusical.theory.note
Note
(dp194
g10
I49
sbtp195
sbF0.25
tp196
asS'inference_rounds'
p197
I800
sS'real_loss'
p198
F12.496249437331187
sa(dp199
g3
g4
sg5
(lp200
(F0
(imusical.theory.chord
Chord
(dp201
g8
((imusical.theory.note
Note
(dp202
g10
I36
sb(imusical.theory.note
Note
(dp203
g10
I40
sb(imusical.theory.note
Note
(dp204
g10
I43
sbtp205
sbF1
tp206
a(F1
(imusical.theory.chord
Chord
(dp207
g8
((imusical.theory.note
Note
(dp208
g10
I43
sb(imusical.theory.note
Note
(dp209
g10
I47
sb(imusical.theory.note
Note
(dp210
g10
I50
sbtp211
sbF1
tp212
a(F2
(imusical.theory.chord
Chord
(dp213
g8
((imusical.theory.note
Note
(dp214
g10
I41
sb(imusical.theory.note
Note
(dp215
g10
I45
sb(imusical.theory.note
Note
(dp216
g10
I48
sbtp217
sbF1
tp218
a(F3
(imusical.theory.chord
Chord
(dp219
g8
((imusical.theory.note
Note
(dp220
g10
I41
sb(imusical.theory.note
Note
(dp221
g10
I45
sb(imusical.theory.note
Note
(dp222
g10
I48
sbtp223
sbF1
tp224
a(F0
(imusical.theory.chord
Chord
(dp225
g8
((imusical.theory.note
Note
(dp226
g10
I59
sbtp227
sbF0.25
tp228
a(F0.25
(imusical.theory.chord
Chord
(dp229
g8
((imusical.theory.note
Note
(dp230
g10
I62
sbtp231
sbF0.25
tp232
a(F0.5
(imusical.theory.chord
Chord
(dp233
g8
((imusical.theory.note
Note
(dp234
g10
I64
sbtp235
sbF0.25
tp236
a(F0.75
(imusical.theory.chord
Chord
(dp237
g8
((imusical.theory.note
Note
(dp238
g10
I65
sbtp239
sbF0.25
tp240
a(F1
(imusical.theory.chord
Chord
(dp241
g8
((imusical.theory.note
Note
(dp242
g10
I47
sbtp243
sbF0.25
tp244
a(F1.25
(imusical.theory.chord
Chord
(dp245
g8
((imusical.theory.note
Note
(dp246
g10
I57
sbtp247
sbF0.25
tp248
a(F1.5
(imusical.theory.chord
Chord
(dp249
g8
((imusical.theory.note
Note
(dp250
g10
I60
sbtp251
sbF0.25
tp252
a(F1.75
(imusical.theory.chord
Chord
(dp253
g8
((imusical.theory.note
Note
(dp254
g10
I53
sbtp255
sbF0.25
tp256
a(F2
(imusical.theory.chord
Chord
(dp257
g8
((imusical.theory.note
Note
(dp258
g10
I52
sbtp259
sbF0.25
tp260
a(F2.25
(imusical.theory.chord
Chord
(dp261
g8
((imusical.theory.note
Note
(dp262
g10
I60
sbtp263
sbF0.25
tp264
a(F2.5
(imusical.theory.chord
Chord
(dp265
g8
((imusical.theory.note
Note
(dp266
g10
I50
sbtp267
sbF0.25
tp268
a(F2.75
(imusical.theory.chord
Chord
(dp269
g8
((imusical.theory.note
Note
(dp270
g10
I65
sbtp271
sbF0.25
tp272
a(F3
(imusical.theory.chord
Chord
(dp273
g8
((imusical.theory.note
Note
(dp274
g10
I60
sbtp275
sbF0.25
tp276
a(F3.25
(imusical.theory.chord
Chord
(dp277
g8
((imusical.theory.note
Note
(dp278
g10
I54
sbtp279
sbF0.25
tp280
a(F3.5
(imusical.theory.chord
Chord
(dp281
g8
((imusical.theory.note
Note
(dp282
g10
I52
sbtp283
sbF0.25
tp284
a(F3.75
(imusical.theory.chord
Chord
(dp285
g8
((imusical.theory.note
Note
(dp286
g10
I48
sbtp287
sbF0.25
tp288
asg97
g98
(g100
S'\x00q\x8cG'
tRp289
sg102
g103
sg104
S'song-3V5-1.wav'
p290
sg106
F169.1638650894165
sg107
(lp291
(F0
(imusical.theory.chord
Chord
(dp292
g8
((imusical.theory.note
Note
(dp293
g10
I36
sb(imusical.theory.note
Note
(dp294
g10
I40
sb(imusical.theory.note
Note
(dp295
g10
I43
sbtp296
sbF1
tp297
a(F1
(imusical.theory.chord
Chord
(dp298
g8
((imusical.theory.note
Note
(dp299
g10
I43
sb(imusical.theory.note
Note
(dp300
g10
I47
sb(imusical.theory.note
Note
(dp301
g10
I50
sbtp302
sbF1
tp303
a(F2
(imusical.theory.chord
Chord
(dp304
g8
((imusical.theory.note
Note
(dp305
g10
I45
sb(imusical.theory.note
Note
(dp306
g10
I48
sb(imusical.theory.note
Note
(dp307
g10
I52
sbtp308
sbF1
tp309
a(F3
(imusical.theory.chord
Chord
(dp310
g8
((imusical.theory.note
Note
(dp311
g10
I41
sb(imusical.theory.note
Note
(dp312
g10
I45
sb(imusical.theory.note
Note
(dp313
g10
I48
sbtp314
sbF1
tp315
a(F0
(imusical.theory.chord
Chord
(dp316
g8
((imusical.theory.note
Note
(dp317
g10
I57
sbtp318
sbF0.25
tp319
a(F0.25
(imusical.theory.chord
Chord
(dp320
g8
((imusical.theory.note
Note
(dp321
g10
I62
sbtp322
sbF0.25
tp323
a(F0.5
(imusical.theory.chord
Chord
(dp324
g8
((imusical.theory.note
Note
(dp325
g10
I64
sbtp326
sbF0.25
tp327
a(F0.75
(imusical.theory.chord
Chord
(dp328
g8
((imusical.theory.note
Note
(dp329
g10
I65
sbtp330
sbF0.25
tp331
a(F1
(imusical.theory.chord
Chord
(dp332
g8
((imusical.theory.note
Note
(dp333
g10
I62
sbtp334
sbF0.25
tp335
a(F1.25
(imusical.theory.chord
Chord
(dp336
g8
((imusical.theory.note
Note
(dp337
g10
I57
sbtp338
sbF0.25
tp339
a(F1.5
(imusical.theory.chord
Chord
(dp340
g8
((imusical.theory.note
Note
(dp341
g10
I53
sbtp342
sbF0.25
tp343
a(F1.75
(imusical.theory.chord
Chord
(dp344
g8
((imusical.theory.note
Note
(dp345
g10
I53
sbtp346
sbF0.25
tp347
a(F2
(imusical.theory.chord
Chord
(dp348
g8
((imusical.theory.note
Note
(dp349
g10
I53
sbtp350
sbF0.25
tp351
a(F2.25
(imusical.theory.chord
Chord
(dp352
g8
((imusical.theory.note
Note
(dp353
g10
I53
sbtp354
sbF0.25
tp355
a(F2.5
(imusical.theory.chord
Chord
(dp356
g8
((imusical.theory.note
Note
(dp357
g10
I50
sbtp358
sbF0.25
tp359
a(F2.75
(imusical.theory.chord
Chord
(dp360
g8
((imusical.theory.note
Note
(dp361
g10
I53
sbtp362
sbF0.25
tp363
a(F3
(imusical.theory.chord
Chord
(dp364
g8
((imusical.theory.note
Note
(dp365
g10
I55
sbtp366
sbF0.25
tp367
a(F3.25
(imusical.theory.chord
Chord
(dp368
g8
((imusical.theory.note
Note
(dp369
g10
I55
sbtp370
sbF0.25
tp371
a(F3.5
(imusical.theory.chord
Chord
(dp372
g8
((imusical.theory.note
Note
(dp373
g10
I52
sbtp374
sbF0.25
tp375
a(F3.75
(imusical.theory.chord
Chord
(dp376
g8
((imusical.theory.note
Note
(dp377
g10
I48
sbtp378
sbF0.25
tp379
asg197
I800
sg198
F17.523020572949175
sa(dp380
g3
g4
sg5
(lp381
(F0
(imusical.theory.chord
Chord
(dp382
g8
((imusical.theory.note
Note
(dp383
g10
I39
sb(imusical.theory.note
Note
(dp384
g10
I43
sb(imusical.theory.note
Note
(dp385
g10
I46
sbtp386
sbF1
tp387
a(F1
(imusical.theory.chord
Chord
(dp388
g8
((imusical.theory.note
Note
(dp389
g10
I43
sb(imusical.theory.note
Note
(dp390
g10
I46
sb(imusical.theory.note
Note
(dp391
g10
I50
sbtp392
sbF1
tp393
a(F2
(imusical.theory.chord
Chord
(dp394
g8
((imusical.theory.note
Note
(dp395
g10
I48
sb(imusical.theory.note
Note
(dp396
g10
I51
sb(imusical.theory.note
Note
(dp397
g10
I55
sbtp398
sbF1
tp399
a(F3
(imusical.theory.chord
Chord
(dp400
g8
((imusical.theory.note
Note
(dp401
g10
I44
sb(imusical.theory.note
Note
(dp402
g10
I48
sb(imusical.theory.note
Note
(dp403
g10
I51
sbtp404
sbF1
tp405
a(F0
(imusical.theory.chord
Chord
(dp406
g8
((imusical.theory.note
Note
(dp407
g10
I48
sbtp408
sbF0.25
tp409
a(F0.25
(imusical.theory.chord
Chord
(dp410
g8
((imusical.theory.note
Note
(dp411
g10
I46
sbtp412
sbF0.25
tp413
a(F0.5
(imusical.theory.chord
Chord
(dp414
g8
((imusical.theory.note
Note
(dp415
g10
I46
sbtp416
sbF0.25
tp417
a(F0.75
(imusical.theory.chord
Chord
(dp418
g8
((imusical.theory.note
Note
(dp419
g10
I44
sbtp420
sbF0.25
tp421
a(F1
(imusical.theory.chord
Chord
(dp422
g8
((imusical.theory.note
Note
(dp423
g10
I72
sbtp424
sbF0.25
tp425
a(F1.25
(imusical.theory.chord
Chord
(dp426
g8
((imusical.theory.note
Note
(dp427
g10
I44
sbtp428
sbF0.25
tp429
a(F1.5
(imusical.theory.chord
Chord
(dp430
g8
((imusical.theory.note
Note
(dp431
g10
I46
sbtp432
sbF0.25
tp433
a(F1.75
(imusical.theory.chord
Chord
(dp434
g8
((imusical.theory.note
Note
(dp435
g10
I48
sbtp436
sbF0.25
tp437
a(F2
(imusical.theory.chord
Chord
(dp438
g8
((imusical.theory.note
Note
(dp439
g10
I53
sbtp440
sbF0.25
tp441
a(F2.25
(imusical.theory.chord
Chord
(dp442
g8
((imusical.theory.note
Note
(dp443
g10
I51
sbtp444
sbF0.25
tp445
a(F2.5
(imusical.theory.chord
Chord
(dp446
g8
((imusical.theory.note
Note
(dp447
g10
I55
sbtp448
sbF0.25
tp449
a(F2.75
(imusical.theory.chord
Chord
(dp450
g8
((imusical.theory.note
Note
(dp451
g10
I62
sbtp452
sbF0.25
tp453
a(F3
(imusical.theory.chord
Chord
(dp454
g8
((imusical.theory.note
Note
(dp455
g10
I53
sbtp456
sbF0.25
tp457
a(F3.25
(imusical.theory.chord
Chord
(dp458
g8
((imusical.theory.note
Note
(dp459
g10
I51
sbtp460
sbF0.25
tp461
a(F3.5
(imusical.theory.chord
Chord
(dp462
g8
((imusical.theory.note
Note
(dp463
g10
I48
sbtp464
sbF0.25
tp465
a(F3.75
(imusical.theory.chord
Chord
(dp466
g8
((imusical.theory.note
Note
(dp467
g10
I48
sbtp468
sbF0.25
tp469
asg97
g98
(g100
S';\xa8\xf0F'
tRp470
sg102
g103
sg104
S'song-3V5-2.wav'
p471
sg106
F192.10068798065186
sg107
(lp472
(F0
(imusical.theory.chord
Chord
(dp473
g8
((imusical.theory.note
Note
(dp474
g10
I39
sb(imusical.theory.note
Note
(dp475
g10
I43
sb(imusical.theory.note
Note
(dp476
g10
I46
sbtp477
sbF1
tp478
a(F1
(imusical.theory.chord
Chord
(dp479
g8
((imusical.theory.note
Note
(dp480
g10
I46
sb(imusical.theory.note
Note
(dp481
g10
I50
sb(imusical.theory.note
Note
(dp482
g10
I53
sbtp483
sbF1
tp484
a(F2
(imusical.theory.chord
Chord
(dp485
g8
((imusical.theory.note
Note
(dp486
g10
I48
sb(imusical.theory.note
Note
(dp487
g10
I51
sb(imusical.theory.note
Note
(dp488
g10
I55
sbtp489
sbF1
tp490
a(F3
(imusical.theory.chord
Chord
(dp491
g8
((imusical.theory.note
Note
(dp492
g10
I44
sb(imusical.theory.note
Note
(dp493
g10
I48
sb(imusical.theory.note
Note
(dp494
g10
I51
sbtp495
sbF1
tp496
a(F0
(imusical.theory.chord
Chord
(dp497
g8
((imusical.theory.note
Note
(dp498
g10
I48
sbtp499
sbF0.25
tp500
a(F0.25
(imusical.theory.chord
Chord
(dp501
g8
((imusical.theory.note
Note
(dp502
g10
I46
sbtp503
sbF0.25
tp504
a(F0.5
(imusical.theory.chord
Chord
(dp505
g8
((imusical.theory.note
Note
(dp506
g10
I46
sbtp507
sbF0.25
tp508
a(F0.75
(imusical.theory.chord
Chord
(dp509
g8
((imusical.theory.note
Note
(dp510
g10
I44
sbtp511
sbF0.25
tp512
a(F1
(imusical.theory.chord
Chord
(dp513
g8
((imusical.theory.note
Note
(dp514
g10
I43
sbtp515
sbF0.25
tp516
a(F1.25
(imusical.theory.chord
Chord
(dp517
g8
((imusical.theory.note
Note
(dp518
g10
I44
sbtp519
sbF0.25
tp520
a(F1.5
(imusical.theory.chord
Chord
(dp521
g8
((imusical.theory.note
Note
(dp522
g10
I46
sbtp523
sbF0.25
tp524
a(F1.75
(imusical.theory.chord
Chord
(dp525
g8
((imusical.theory.note
Note
(dp526
g10
I48
sbtp527
sbF0.25
tp528
a(F2
(imusical.theory.chord
Chord
(dp529
g8
((imusical.theory.note
Note
(dp530
g10
I53
sbtp531
sbF0.25
tp532
a(F2.25
(imusical.theory.chord
Chord
(dp533
g8
((imusical.theory.note
Note
(dp534
g10
I51
sbtp535
sbF0.25
tp536
a(F2.5
(imusical.theory.chord
Chord
(dp537
g8
((imusical.theory.note
Note
(dp538
g10
I55
sbtp539
sbF0.25
tp540
a(F2.75
(imusical.theory.chord
Chord
(dp541
g8
((imusical.theory.note
Note
(dp542
g10
I55
sbtp543
sbF0.25
tp544
a(F3
(imusical.theory.chord
Chord
(dp545
g8
((imusical.theory.note
Note
(dp546
g10
I53
sbtp547
sbF0.25
tp548
a(F3.25
(imusical.theory.chord
Chord
(dp549
g8
((imusical.theory.note
Note
(dp550
g10
I51
sbtp551
sbF0.25
tp552
a(F3.5
(imusical.theory.chord
Chord
(dp553
g8
((imusical.theory.note
Note
(dp554
g10
I48
sbtp555
sbF0.25
tp556
a(F3.75
(imusical.theory.chord
Chord
(dp557
g8
((imusical.theory.note
Note
(dp558
g10
I48
sbtp559
sbF0.25
tp560
asg197
I800
sg198
F13.811453580271701
sa(dp561
g3
g4
sg5
(lp562
(F0
(imusical.theory.chord
Chord
(dp563
g8
((imusical.theory.note
Note
(dp564
g10
I41
sb(imusical.theory.note
Note
(dp565
g10
I45
sb(imusical.theory.note
Note
(dp566
g10
I48
sbtp567
sbF1
tp568
a(F1
(imusical.theory.chord
Chord
(dp569
g8
((imusical.theory.note
Note
(dp570
g10
I52
sb(imusical.theory.note
Note
(dp571
g10
I55
sb(imusical.theory.note
Note
(dp572
g10
I59
sbtp573
sbF1
tp574
a(F2
(imusical.theory.chord
Chord
(dp575
g8
((imusical.theory.note
Note
(dp576
g10
I46
sb(imusical.theory.note
Note
(dp577
g10
I50
sb(imusical.theory.note
Note
(dp578
g10
I53
sbtp579
sbF1
tp580
a(F3
(imusical.theory.chord
Chord
(dp581
g8
((imusical.theory.note
Note
(dp582
g10
I46
sb(imusical.theory.note
Note
(dp583
g10
I50
sb(imusical.theory.note
Note
(dp584
g10
I53
sbtp585
sbF1
tp586
a(F0
(imusical.theory.chord
Chord
(dp587
g8
((imusical.theory.note
Note
(dp588
g10
I45
sbtp589
sbF0.25
tp590
a(F0.25
(imusical.theory.chord
Chord
(dp591
g8
((imusical.theory.note
Note
(dp592
g10
I53
sbtp593
sbF0.25
tp594
a(F0.5
(imusical.theory.chord
Chord
(dp595
g8
((imusical.theory.note
Note
(dp596
g10
I70
sbtp597
sbF0.25
tp598
a(F0.75
(imusical.theory.chord
Chord
(dp599
g8
((imusical.theory.note
Note
(dp600
g10
I55
sbtp601
sbF0.25
tp602
a(F1
(imusical.theory.chord
Chord
(dp603
g8
((imusical.theory.note
Note
(dp604
g10
I48
sbtp605
sbF0.25
tp606
a(F1.25
(imusical.theory.chord
Chord
(dp607
g8
((imusical.theory.note
Note
(dp608
g10
I52
sbtp609
sbF0.25
tp610
a(F1.5
(imusical.theory.chord
Chord
(dp611
g8
((imusical.theory.note
Note
(dp612
g10
I53
sbtp613
sbF0.25
tp614
a(F1.75
(imusical.theory.chord
Chord
(dp615
g8
((imusical.theory.note
Note
(dp616
g10
I52
sbtp617
sbF0.25
tp618
a(F2
(imusical.theory.chord
Chord
(dp619
g8
((imusical.theory.note
Note
(dp620
g10
I50
sbtp621
sbF0.25
tp622
a(F2.25
(imusical.theory.chord
Chord
(dp623
g8
((imusical.theory.note
Note
(dp624
g10
I46
sbtp625
sbF0.25
tp626
a(F2.5
(imusical.theory.chord
Chord
(dp627
g8
((imusical.theory.note
Note
(dp628
g10
I46
sbtp629
sbF0.25
tp630
a(F2.75
(imusical.theory.chord
Chord
(dp631
g8
((imusical.theory.note
Note
(dp632
g10
I41
sbtp633
sbF0.25
tp634
a(F3
(imusical.theory.chord
Chord
(dp635
g8
((imusical.theory.note
Note
(dp636
g10
I60
sbtp637
sbF0.25
tp638
a(F3.25
(imusical.theory.chord
Chord
(dp639
g8
((imusical.theory.note
Note
(dp640
g10
I52
sbtp641
sbF0.25
tp642
a(F3.5
(imusical.theory.chord
Chord
(dp643
g8
((imusical.theory.note
Note
(dp644
g10
I50
sbtp645
sbF0.25
tp646
a(F3.75
(imusical.theory.chord
Chord
(dp647
g8
((imusical.theory.note
Note
(dp648
g10
I53
sbtp649
sbF0.25
tp650
asg97
g98
(g100
S'\xb6\x08\xb0G'
tRp651
sg102
g103
sg104
S'song-3V5-3.wav'
p652
sg106
F191.69813299179077
sg107
(lp653
(F0
(imusical.theory.chord
Chord
(dp654
g8
((imusical.theory.note
Note
(dp655
g10
I41
sb(imusical.theory.note
Note
(dp656
g10
I45
sb(imusical.theory.note
Note
(dp657
g10
I48
sbtp658
sbF1
tp659
a(F1
(imusical.theory.chord
Chord
(dp660
g8
((imusical.theory.note
Note
(dp661
g10
I48
sb(imusical.theory.note
Note
(dp662
g10
I52
sb(imusical.theory.note
Note
(dp663
g10
I55
sbtp664
sbF1
tp665
a(F2
(imusical.theory.chord
Chord
(dp666
g8
((imusical.theory.note
Note
(dp667
g10
I50
sb(imusical.theory.note
Note
(dp668
g10
I53
sb(imusical.theory.note
Note
(dp669
g10
I57
sbtp670
sbF1
tp671
a(F3
(imusical.theory.chord
Chord
(dp672
g8
((imusical.theory.note
Note
(dp673
g10
I46
sb(imusical.theory.note
Note
(dp674
g10
I50
sb(imusical.theory.note
Note
(dp675
g10
I53
sbtp676
sbF1
tp677
a(F0
(imusical.theory.chord
Chord
(dp678
g8
((imusical.theory.note
Note
(dp679
g10
I53
sbtp680
sbF0.25
tp681
a(F0.25
(imusical.theory.chord
Chord
(dp682
g8
((imusical.theory.note
Note
(dp683
g10
I57
sbtp684
sbF0.25
tp685
a(F0.5
(imusical.theory.chord
Chord
(dp686
g8
((imusical.theory.note
Note
(dp687
g10
I58
sbtp688
sbF0.25
tp689
a(F0.75
(imusical.theory.chord
Chord
(dp690
g8
((imusical.theory.note
Note
(dp691
g10
I55
sbtp692
sbF0.25
tp693
a(F1
(imusical.theory.chord
Chord
(dp694
g8
((imusical.theory.note
Note
(dp695
g10
I53
sbtp696
sbF0.25
tp697
a(F1.25
(imusical.theory.chord
Chord
(dp698
g8
((imusical.theory.note
Note
(dp699
g10
I52
sbtp700
sbF0.25
tp701
a(F1.5
(imusical.theory.chord
Chord
(dp702
g8
((imusical.theory.note
Note
(dp703
g10
I53
sbtp704
sbF0.25
tp705
a(F1.75
(imusical.theory.chord
Chord
(dp706
g8
((imusical.theory.note
Note
(dp707
g10
I52
sbtp708
sbF0.25
tp709
a(F2
(imusical.theory.chord
Chord
(dp710
g8
((imusical.theory.note
Note
(dp711
g10
I53
sbtp712
sbF0.25
tp713
a(F2.25
(imusical.theory.chord
Chord
(dp714
g8
((imusical.theory.note
Note
(dp715
g10
I46
sbtp716
sbF0.25
tp717
a(F2.5
(imusical.theory.chord
Chord
(dp718
g8
((imusical.theory.note
Note
(dp719
g10
I46
sbtp720
sbF0.25
tp721
a(F2.75
(imusical.theory.chord
Chord
(dp722
g8
((imusical.theory.note
Note
(dp723
g10
I41
sbtp724
sbF0.25
tp725
a(F3
(imusical.theory.chord
Chord
(dp726
g8
((imusical.theory.note
Note
(dp727
g10
I48
sbtp728
sbF0.25
tp729
a(F3.25
(imusical.theory.chord
Chord
(dp730
g8
((imusical.theory.note
Note
(dp731
g10
I52
sbtp732
sbF0.25
tp733
a(F3.5
(imusical.theory.chord
Chord
(dp734
g8
((imusical.theory.note
Note
(dp735
g10
I50
sbtp736
sbF0.25
tp737
a(F3.75
(imusical.theory.chord
Chord
(dp738
g8
((imusical.theory.note
Note
(dp739
g10
I50
sbtp740
sbF0.25
tp741
asg197
I800
sg198
F11.426121389167893
sa(dp742
g3
g4
sg5
(lp743
(F0
(imusical.theory.chord
Chord
(dp744
g8
((imusical.theory.note
Note
(dp745
g10
I40
sb(imusical.theory.note
Note
(dp746
g10
I43
sb(imusical.theory.note
Note
(dp747
g10
I47
sbtp748
sbF1
tp749
a(F1
(imusical.theory.chord
Chord
(dp750
g8
((imusical.theory.note
Note
(dp751
g10
I43
sb(imusical.theory.note
Note
(dp752
g10
I46
sb(imusical.theory.note
Note
(dp753
g10
I50
sbtp754
sbF1
tp755
a(F2
(imusical.theory.chord
Chord
(dp756
g8
((imusical.theory.note
Note
(dp757
g10
I44
sb(imusical.theory.note
Note
(dp758
g10
I48
sb(imusical.theory.note
Note
(dp759
g10
I51
sbtp760
sbF1
tp761
a(F3
(imusical.theory.chord
Chord
(dp762
g8
((imusical.theory.note
Note
(dp763
g10
I44
sb(imusical.theory.note
Note
(dp764
g10
I48
sb(imusical.theory.note
Note
(dp765
g10
I51
sbtp766
sbF1
tp767
a(F0
(imusical.theory.chord
Chord
(dp768
g8
((imusical.theory.note
Note
(dp769
g10
I46
sbtp770
sbF0.25
tp771
a(F0.25
(imusical.theory.chord
Chord
(dp772
g8
((imusical.theory.note
Note
(dp773
g10
I51
sbtp774
sbF0.25
tp775
a(F0.5
(imusical.theory.chord
Chord
(dp776
g8
((imusical.theory.note
Note
(dp777
g10
I50
sbtp778
sbF0.25
tp779
a(F0.75
(imusical.theory.chord
Chord
(dp780
g8
((imusical.theory.note
Note
(dp781
g10
I50
sbtp782
sbF0.25
tp783
a(F1
(imusical.theory.chord
Chord
(dp784
g8
((imusical.theory.note
Note
(dp785
g10
I48
sbtp786
sbF0.25
tp787
a(F1.25
(imusical.theory.chord
Chord
(dp788
g8
((imusical.theory.note
Note
(dp789
g10
I44
sbtp790
sbF0.25
tp791
a(F1.5
(imusical.theory.chord
Chord
(dp792
g8
((imusical.theory.note
Note
(dp793
g10
I46
sbtp794
sbF0.25
tp795
a(F1.75
(imusical.theory.chord
Chord
(dp796
g8
((imusical.theory.note
Note
(dp797
g10
I65
sbtp798
sbF0.25
tp799
a(F2
(imusical.theory.chord
Chord
(dp800
g8
((imusical.theory.note
Note
(dp801
g10
I48
sbtp802
sbF0.25
tp803
a(F2.25
(imusical.theory.chord
Chord
(dp804
g8
((imusical.theory.note
Note
(dp805
g10
I72
sbtp806
sbF0.25
tp807
a(F2.5
(imusical.theory.chord
Chord
(dp808
g8
((imusical.theory.note
Note
(dp809
g10
I77
sbtp810
sbF0.25
tp811
a(F2.75
(imusical.theory.chord
Chord
(dp812
g8
((imusical.theory.note
Note
(dp813
g10
I72
sbtp814
sbF0.25
tp815
a(F3
(imusical.theory.chord
Chord
(dp816
g8
((imusical.theory.note
Note
(dp817
g10
I56
sbtp818
sbF0.25
tp819
a(F3.25
(imusical.theory.chord
Chord
(dp820
g8
((imusical.theory.note
Note
(dp821
g10
I63
sbtp822
sbF0.25
tp823
a(F3.5
(imusical.theory.chord
Chord
(dp824
g8
((imusical.theory.note
Note
(dp825
g10
I62
sbtp826
sbF0.25
tp827
a(F3.75
(imusical.theory.chord
Chord
(dp828
g8
((imusical.theory.note
Note
(dp829
g10
I58
sbtp830
sbF0.25
tp831
asg97
g98
(g100
S'\xd2\x96\xc7G'
tRp832
sg102
g103
sg104
S'song-3V5-4.wav'
p833
sg106
F164.42545199394226
sg107
(lp834
(F0
(imusical.theory.chord
Chord
(dp835
g8
((imusical.theory.note
Note
(dp836
g10
I39
sb(imusical.theory.note
Note
(dp837
g10
I43
sb(imusical.theory.note
Note
(dp838
g10
I46
sbtp839
sbF1
tp840
a(F1
(imusical.theory.chord
Chord
(dp841
g8
((imusical.theory.note
Note
(dp842
g10
I46
sb(imusical.theory.note
Note
(dp843
g10
I50
sb(imusical.theory.note
Note
(dp844
g10
I53
sbtp845
sbF1
tp846
a(F2
(imusical.theory.chord
Chord
(dp847
g8
((imusical.theory.note
Note
(dp848
g10
I48
sb(imusical.theory.note
Note
(dp849
g10
I51
sb(imusical.theory.note
Note
(dp850
g10
I55
sbtp851
sbF1
tp852
a(F3
(imusical.theory.chord
Chord
(dp853
g8
((imusical.theory.note
Note
(dp854
g10
I44
sb(imusical.theory.note
Note
(dp855
g10
I48
sb(imusical.theory.note
Note
(dp856
g10
I51
sbtp857
sbF1
tp858
a(F0
(imusical.theory.chord
Chord
(dp859
g8
((imusical.theory.note
Note
(dp860
g10
I48
sbtp861
sbF0.25
tp862
a(F0.25
(imusical.theory.chord
Chord
(dp863
g8
((imusical.theory.note
Note
(dp864
g10
I51
sbtp865
sbF0.25
tp866
a(F0.5
(imusical.theory.chord
Chord
(dp867
g8
((imusical.theory.note
Note
(dp868
g10
I50
sbtp869
sbF0.25
tp870
a(F0.75
(imusical.theory.chord
Chord
(dp871
g8
((imusical.theory.note
Note
(dp872
g10
I50
sbtp873
sbF0.25
tp874
a(F1
(imusical.theory.chord
Chord
(dp875
g8
((imusical.theory.note
Note
(dp876
g10
I48
sbtp877
sbF0.25
tp878
a(F1.25
(imusical.theory.chord
Chord
(dp879
g8
((imusical.theory.note
Note
(dp880
g10
I44
sbtp881
sbF0.25
tp882
a(F1.5
(imusical.theory.chord
Chord
(dp883
g8
((imusical.theory.note
Note
(dp884
g10
I46
sbtp885
sbF0.25
tp886
a(F1.75
(imusical.theory.chord
Chord
(dp887
g8
((imusical.theory.note
Note
(dp888
g10
I53
sbtp889
sbF0.25
tp890
a(F2
(imusical.theory.chord
Chord
(dp891
g8
((imusical.theory.note
Note
(dp892
g10
I56
sbtp893
sbF0.25
tp894
a(F2.25
(imusical.theory.chord
Chord
(dp895
g8
((imusical.theory.note
Note
(dp896
g10
I62
sbtp897
sbF0.25
tp898
a(F2.5
(imusical.theory.chord
Chord
(dp899
g8
((imusical.theory.note
Note
(dp900
g10
I65
sbtp901
sbF0.25
tp902
a(F2.75
(imusical.theory.chord
Chord
(dp903
g8
((imusical.theory.note
Note
(dp904
g10
I65
sbtp905
sbF0.25
tp906
a(F3
(imusical.theory.chord
Chord
(dp907
g8
((imusical.theory.note
Note
(dp908
g10
I63
sbtp909
sbF0.25
tp910
a(F3.25
(imusical.theory.chord
Chord
(dp911
g8
((imusical.theory.note
Note
(dp912
g10
I63
sbtp913
sbF0.25
tp914
a(F3.5
(imusical.theory.chord
Chord
(dp915
g8
((imusical.theory.note
Note
(dp916
g10
I62
sbtp917
sbF0.25
tp918
a(F3.75
(imusical.theory.chord
Chord
(dp919
g8
((imusical.theory.note
Note
(dp920
g10
I58
sbtp921
sbF0.25
tp922
asg197
I800
sg198
F14.40681262458841
sa(dp923
g3
g4
sg5
(lp924
(F0
(imusical.theory.chord
Chord
(dp925
g8
((imusical.theory.note
Note
(dp926
g10
I46
sb(imusical.theory.note
Note
(dp927
g10
I50
sb(imusical.theory.note
Note
(dp928
g10
I53
sbtp929
sbF1
tp930
a(F1
(imusical.theory.chord
Chord
(dp931
g8
((imusical.theory.note
Note
(dp932
g10
I36
sb(imusical.theory.note
Note
(dp933
g10
I40
sb(imusical.theory.note
Note
(dp934
g10
I43
sbtp935
sbF1
tp936
a(F2
(imusical.theory.chord
Chord
(dp937
g8
((imusical.theory.note
Note
(dp938
g10
I27
sb(imusical.theory.note
Note
(dp939
g10
I30
sb(imusical.theory.note
Note
(dp940
g10
I34
sbtp941
sbF1
tp942
a(F3
(imusical.theory.chord
Chord
(dp943
g8
((imusical.theory.note
Note
(dp944
g10
I17
sb(imusical.theory.note
Note
(dp945
g10
I21
sb(imusical.theory.note
Note
(dp946
g10
I24
sbtp947
sbF1
tp948
a(F0
(imusical.theory.chord
Chord
(dp949
g8
((imusical.theory.note
Note
(dp950
g10
I50
sbtp951
sbF0.25
tp952
a(F0.25
(imusical.theory.chord
Chord
(dp953
g8
((imusical.theory.note
Note
(dp954
g10
I45
sbtp955
sbF0.25
tp956
a(F0.5
(imusical.theory.chord
Chord
(dp957
g8
((imusical.theory.note
Note
(dp958
g10
I36
sbtp959
sbF0.25
tp960
a(F0.75
(imusical.theory.chord
Chord
(dp961
g8
((imusical.theory.note
Note
(dp962
g10
I41
sbtp963
sbF0.25
tp964
a(F1
(imusical.theory.chord
Chord
(dp965
g8
((imusical.theory.note
Note
(dp966
g10
I53
sbtp967
sbF0.25
tp968
a(F1.25
(imusical.theory.chord
Chord
(dp969
g8
((imusical.theory.note
Note
(dp970
g10
I34
sbtp971
sbF0.25
tp972
a(F1.5
(imusical.theory.chord
Chord
(dp973
g8
((imusical.theory.note
Note
(dp974
g10
I33
sbtp975
sbF0.25
tp976
a(F1.75
(imusical.theory.chord
Chord
(dp977
g8
((imusical.theory.note
Note
(dp978
g10
I29
sbtp979
sbF0.25
tp980
a(F2
(imusical.theory.chord
Chord
(dp981
g8
((imusical.theory.note
Note
(dp982
g10
I65
sbtp983
sbF0.25
tp984
a(F2.25
(imusical.theory.chord
Chord
(dp985
g8
((imusical.theory.note
Note
(dp986
g10
I27
sbtp987
sbF0.25
tp988
a(F2.5
(imusical.theory.chord
Chord
(dp989
g8
((imusical.theory.note
Note
(dp990
g10
I25
sbtp991
sbF0.25
tp992
a(F2.75
(imusical.theory.chord
Chord
(dp993
g8
((imusical.theory.note
Note
(dp994
g10
I24
sbtp995
sbF0.25
tp996
a(F3
(imusical.theory.chord
Chord
(dp997
g8
((imusical.theory.note
Note
(dp998
g10
I45
sbtp999
sbF0.25
tp1000
a(F3.25
(imusical.theory.chord
Chord
(dp1001
g8
((imusical.theory.note
Note
(dp1002
g10
I34
sbtp1003
sbF0.25
tp1004
a(F3.5
(imusical.theory.chord
Chord
(dp1005
g8
((imusical.theory.note
Note
(dp1006
g10
I27
sbtp1007
sbF0.25
tp1008
a(F3.75
(imusical.theory.chord
Chord
(dp1009
g8
((imusical.theory.note
Note
(dp1010
g10
I22
sbtp1011
sbF0.25
tp1012
asg97
g98
(g100
S'\xd6_\xacG'
tRp1013
sg102
g103
sg104
S'song-3V5-5.wav'
p1014
sg106
F188.46215891838074
sg107
(lp1015
(F0
(imusical.theory.chord
Chord
(dp1016
g8
((imusical.theory.note
Note
(dp1017
g10
I46
sb(imusical.theory.note
Note
(dp1018
g10
I50
sb(imusical.theory.note
Note
(dp1019
g10
I53
sbtp1020
sbF1
tp1021
a(F1
(imusical.theory.chord
Chord
(dp1022
g8
((imusical.theory.note
Note
(dp1023
g10
I53
sb(imusical.theory.note
Note
(dp1024
g10
I57
sb(imusical.theory.note
Note
(dp1025
g10
I60
sbtp1026
sbF1
tp1027
a(F2
(imusical.theory.chord
Chord
(dp1028
g8
((imusical.theory.note
Note
(dp1029
g10
I55
sb(imusical.theory.note
Note
(dp1030
g10
I58
sb(imusical.theory.note
Note
(dp1031
g10
I62
sbtp1032
sbF1
tp1033
a(F3
(imusical.theory.chord
Chord
(dp1034
g8
((imusical.theory.note
Note
(dp1035
g10
I51
sb(imusical.theory.note
Note
(dp1036
g10
I55
sb(imusical.theory.note
Note
(dp1037
g10
I58
sbtp1038
sbF1
tp1039
a(F0
(imusical.theory.chord
Chord
(dp1040
g8
((imusical.theory.note
Note
(dp1041
g10
I50
sbtp1042
sbF0.25
tp1043
a(F0.25
(imusical.theory.chord
Chord
(dp1044
g8
((imusical.theory.note
Note
(dp1045
g10
I45
sbtp1046
sbF0.25
tp1047
a(F0.5
(imusical.theory.chord
Chord
(dp1048
g8
((imusical.theory.note
Note
(dp1049
g10
I36
sbtp1050
sbF0.25
tp1051
a(F0.75
(imusical.theory.chord
Chord
(dp1052
g8
((imusical.theory.note
Note
(dp1053
g10
I41
sbtp1054
sbF0.25
tp1055
a(F1
(imusical.theory.chord
Chord
(dp1056
g8
((imusical.theory.note
Note
(dp1057
g10
I36
sbtp1058
sbF0.25
tp1059
a(F1.25
(imusical.theory.chord
Chord
(dp1060
g8
((imusical.theory.note
Note
(dp1061
g10
I34
sbtp1062
sbF0.25
tp1063
a(F1.5
(imusical.theory.chord
Chord
(dp1064
g8
((imusical.theory.note
Note
(dp1065
g10
I33
sbtp1066
sbF0.25
tp1067
a(F1.75
(imusical.theory.chord
Chord
(dp1068
g8
((imusical.theory.note
Note
(dp1069
g10
I29
sbtp1070
sbF0.25
tp1071
a(F2
(imusical.theory.chord
Chord
(dp1072
g8
((imusical.theory.note
Note
(dp1073
g10
I26
sbtp1074
sbF0.25
tp1075
a(F2.25
(imusical.theory.chord
Chord
(dp1076
g8
((imusical.theory.note
Note
(dp1077
g10
I27
sbtp1078
sbF0.25
tp1079
a(F2.5
(imusical.theory.chord
Chord
(dp1080
g8
((imusical.theory.note
Note
(dp1081
g10
I24
sbtp1082
sbF0.25
tp1083
a(F2.75
(imusical.theory.chord
Chord
(dp1084
g8
((imusical.theory.note
Note
(dp1085
g10
I24
sbtp1086
sbF0.25
tp1087
a(F3
(imusical.theory.chord
Chord
(dp1088
g8
((imusical.theory.note
Note
(dp1089
g10
I22
sbtp1090
sbF0.25
tp1091
a(F3.25
(imusical.theory.chord
Chord
(dp1092
g8
((imusical.theory.note
Note
(dp1093
g10
I22
sbtp1094
sbF0.25
tp1095
a(F3.5
(imusical.theory.chord
Chord
(dp1096
g8
((imusical.theory.note
Note
(dp1097
g10
I27
sbtp1098
sbF0.25
tp1099
a(F3.75
(imusical.theory.chord
Chord
(dp1100
g8
((imusical.theory.note
Note
(dp1101
g10
I21
sbtp1102
sbF0.25
tp1103
asg197
I800
sg198
F34.879166417791581
sa(dp1104
g3
g4
sg5
(lp1105
(F0
(imusical.theory.chord
Chord
(dp1106
g8
((imusical.theory.note
Note
(dp1107
g10
I39
sb(imusical.theory.note
Note
(dp1108
g10
I43
sb(imusical.theory.note
Note
(dp1109
g10
I46
sbtp1110
sbF1
tp1111
a(F1
(imusical.theory.chord
Chord
(dp1112
g8
((imusical.theory.note
Note
(dp1113
g10
I46
sb(imusical.theory.note
Note
(dp1114
g10
I50
sb(imusical.theory.note
Note
(dp1115
g10
I53
sbtp1116
sbF1
tp1117
a(F2
(imusical.theory.chord
Chord
(dp1118
g8
((imusical.theory.note
Note
(dp1119
g10
I48
sb(imusical.theory.note
Note
(dp1120
g10
I51
sb(imusical.theory.note
Note
(dp1121
g10
I55
sbtp1122
sbF1
tp1123
a(F3
(imusical.theory.chord
Chord
(dp1124
g8
((imusical.theory.note
Note
(dp1125
g10
I44
sb(imusical.theory.note
Note
(dp1126
g10
I48
sb(imusical.theory.note
Note
(dp1127
g10
I51
sbtp1128
sbF1
tp1129
a(F0
(imusical.theory.chord
Chord
(dp1130
g8
((imusical.theory.note
Note
(dp1131
g10
I46
sbtp1132
sbF0.25
tp1133
a(F0.25
(imusical.theory.chord
Chord
(dp1134
g8
((imusical.theory.note
Note
(dp1135
g10
I60
sbtp1136
sbF0.25
tp1137
a(F0.5
(imusical.theory.chord
Chord
(dp1138
g8
((imusical.theory.note
Note
(dp1139
g10
I62
sbtp1140
sbF0.25
tp1141
a(F0.75
(imusical.theory.chord
Chord
(dp1142
g8
((imusical.theory.note
Note
(dp1143
g10
I68
sbtp1144
sbF0.25
tp1145
a(F1
(imusical.theory.chord
Chord
(dp1146
g8
((imusical.theory.note
Note
(dp1147
g10
I53
sbtp1148
sbF0.25
tp1149
a(F1.25
(imusical.theory.chord
Chord
(dp1150
g8
((imusical.theory.note
Note
(dp1151
g10
I74
sbtp1152
sbF0.25
tp1153
a(F1.5
(imusical.theory.chord
Chord
(dp1154
g8
((imusical.theory.note
Note
(dp1155
g10
I74
sbtp1156
sbF0.25
tp1157
a(F1.75
(imusical.theory.chord
Chord
(dp1158
g8
((imusical.theory.note
Note
(dp1159
g10
I82
sbtp1160
sbF0.25
tp1161
a(F2
(imusical.theory.chord
Chord
(dp1162
g8
((imusical.theory.note
Note
(dp1163
g10
I51
sbtp1164
sbF0.25
tp1165
a(F2.25
(imusical.theory.chord
Chord
(dp1166
g8
((imusical.theory.note
Note
(dp1167
g10
I88
sbtp1168
sbF0.25
tp1169
a(F2.5
(imusical.theory.chord
Chord
(dp1170
g8
((imusical.theory.note
Note
(dp1171
g10
I79
sbtp1172
sbF0.25
tp1173
a(F2.75
(imusical.theory.chord
Chord
(dp1174
g8
((imusical.theory.note
Note
(dp1175
g10
I79
sbtp1176
sbF0.25
tp1177
a(F3
(imusical.theory.chord
Chord
(dp1178
g8
((imusical.theory.note
Note
(dp1179
g10
I56
sbtp1180
sbF0.25
tp1181
a(F3.25
(imusical.theory.chord
Chord
(dp1182
g8
((imusical.theory.note
Note
(dp1183
g10
I68
sbtp1184
sbF0.25
tp1185
a(F3.5
(imusical.theory.chord
Chord
(dp1186
g8
((imusical.theory.note
Note
(dp1187
g10
I68
sbtp1188
sbF0.25
tp1189
a(F3.75
(imusical.theory.chord
Chord
(dp1190
g8
((imusical.theory.note
Note
(dp1191
g10
I80
sbtp1192
sbF0.25
tp1193
asg97
g98
(g100
S'\xa5 \xc2F'
tRp1194
sg102
g103
sg104
S'song-3V5-6.wav'
p1195
sg106
F169.19485998153687
sg107
(lp1196
(F0
(imusical.theory.chord
Chord
(dp1197
g8
((imusical.theory.note
Note
(dp1198
g10
I39
sb(imusical.theory.note
Note
(dp1199
g10
I43
sb(imusical.theory.note
Note
(dp1200
g10
I46
sbtp1201
sbF1
tp1202
a(F1
(imusical.theory.chord
Chord
(dp1203
g8
((imusical.theory.note
Note
(dp1204
g10
I46
sb(imusical.theory.note
Note
(dp1205
g10
I50
sb(imusical.theory.note
Note
(dp1206
g10
I53
sbtp1207
sbF1
tp1208
a(F2
(imusical.theory.chord
Chord
(dp1209
g8
((imusical.theory.note
Note
(dp1210
g10
I48
sb(imusical.theory.note
Note
(dp1211
g10
I51
sb(imusical.theory.note
Note
(dp1212
g10
I55
sbtp1213
sbF1
tp1214
a(F3
(imusical.theory.chord
Chord
(dp1215
g8
((imusical.theory.note
Note
(dp1216
g10
I44
sb(imusical.theory.note
Note
(dp1217
g10
I48
sb(imusical.theory.note
Note
(dp1218
g10
I51
sbtp1219
sbF1
tp1220
a(F0
(imusical.theory.chord
Chord
(dp1221
g8
((imusical.theory.note
Note
(dp1222
g10
I58
sbtp1223
sbF0.25
tp1224
a(F0.25
(imusical.theory.chord
Chord
(dp1225
g8
((imusical.theory.note
Note
(dp1226
g10
I60
sbtp1227
sbF0.25
tp1228
a(F0.5
(imusical.theory.chord
Chord
(dp1229
g8
((imusical.theory.note
Note
(dp1230
g10
I62
sbtp1231
sbF0.25
tp1232
a(F0.75
(imusical.theory.chord
Chord
(dp1233
g8
((imusical.theory.note
Note
(dp1234
g10
I68
sbtp1235
sbF0.25
tp1236
a(F1
(imusical.theory.chord
Chord
(dp1237
g8
((imusical.theory.note
Note
(dp1238
g10
I72
sbtp1239
sbF0.25
tp1240
a(F1.25
(imusical.theory.chord
Chord
(dp1241
g8
((imusical.theory.note
Note
(dp1242
g10
I74
sbtp1243
sbF0.25
tp1244
a(F1.5
(imusical.theory.chord
Chord
(dp1245
g8
((imusical.theory.note
Note
(dp1246
g10
I74
sbtp1247
sbF0.25
tp1248
a(F1.75
(imusical.theory.chord
Chord
(dp1249
g8
((imusical.theory.note
Note
(dp1250
g10
I82
sbtp1251
sbF0.25
tp1252
a(F2
(imusical.theory.chord
Chord
(dp1253
g8
((imusical.theory.note
Note
(dp1254
g10
I80
sbtp1255
sbF0.25
tp1256
a(F2.25
(imusical.theory.chord
Chord
(dp1257
g8
((imusical.theory.note
Note
(dp1258
g10
I84
sbtp1259
sbF0.25
tp1260
a(F2.5
(imusical.theory.chord
Chord
(dp1261
g8
((imusical.theory.note
Note
(dp1262
g10
I84
sbtp1263
sbF0.25
tp1264
a(F2.75
(imusical.theory.chord
Chord
(dp1265
g8
((imusical.theory.note
Note
(dp1266
g10
I89
sbtp1267
sbF0.25
tp1268
a(F3
(imusical.theory.chord
Chord
(dp1269
g8
((imusical.theory.note
Note
(dp1270
g10
I98
sbtp1271
sbF0.25
tp1272
a(F3.25
(imusical.theory.chord
Chord
(dp1273
g8
((imusical.theory.note
Note
(dp1274
g10
I99
sbtp1275
sbF0.25
tp1276
a(F3.5
(imusical.theory.chord
Chord
(dp1277
g8
((imusical.theory.note
Note
(dp1278
g10
I103
sbtp1279
sbF0.25
tp1280
a(F3.75
(imusical.theory.chord
Chord
(dp1281
g8
((imusical.theory.note
Note
(dp1282
g10
I103
sbtp1283
sbF0.25
tp1284
asg197
I800
sg198
F37.327687445112375
sa(dp1285
g3
g4
sg5
(lp1286
(F0
(imusical.theory.chord
Chord
(dp1287
g8
((imusical.theory.note
Note
(dp1288
g10
I54
sb(imusical.theory.note
Note
(dp1289
g10
I58
sb(imusical.theory.note
Note
(dp1290
g10
I61
sbtp1291
sbF1
tp1292
a(F1
(imusical.theory.chord
Chord
(dp1293
g8
((imusical.theory.note
Note
(dp1294
g10
I54
sb(imusical.theory.note
Note
(dp1295
g10
I58
sb(imusical.theory.note
Note
(dp1296
g10
I61
sbtp1297
sbF1
tp1298
a(F2
(imusical.theory.chord
Chord
(dp1299
g8
((imusical.theory.note
Note
(dp1300
g10
I56
sb(imusical.theory.note
Note
(dp1301
g10
I59
sb(imusical.theory.note
Note
(dp1302
g10
I63
sbtp1303
sbF1
tp1304
a(F3
(imusical.theory.chord
Chord
(dp1305
g8
((imusical.theory.note
Note
(dp1306
g10
I48
sb(imusical.theory.note
Note
(dp1307
g10
I52
sb(imusical.theory.note
Note
(dp1308
g10
I55
sbtp1309
sbF1
tp1310
a(F0
(imusical.theory.chord
Chord
(dp1311
g8
((imusical.theory.note
Note
(dp1312
g10
I47
sbtp1313
sbF0.25
tp1314
a(F0.25
(imusical.theory.chord
Chord
(dp1315
g8
((imusical.theory.note
Note
(dp1316
g10
I51
sbtp1317
sbF0.25
tp1318
a(F0.5
(imusical.theory.chord
Chord
(dp1319
g8
((imusical.theory.note
Note
(dp1320
g10
I59
sbtp1321
sbF0.25
tp1322
a(F0.75
(imusical.theory.chord
Chord
(dp1323
g8
((imusical.theory.note
Note
(dp1324
g10
I54
sbtp1325
sbF0.25
tp1326
a(F1
(imusical.theory.chord
Chord
(dp1327
g8
((imusical.theory.note
Note
(dp1328
g10
I54
sbtp1329
sbF0.25
tp1330
a(F1.25
(imusical.theory.chord
Chord
(dp1331
g8
((imusical.theory.note
Note
(dp1332
g10
I59
sbtp1333
sbF0.25
tp1334
a(F1.5
(imusical.theory.chord
Chord
(dp1335
g8
((imusical.theory.note
Note
(dp1336
g10
I66
sbtp1337
sbF0.25
tp1338
a(F1.75
(imusical.theory.chord
Chord
(dp1339
g8
((imusical.theory.note
Note
(dp1340
g10
I64
sbtp1341
sbF0.25
tp1342
a(F2
(imusical.theory.chord
Chord
(dp1343
g8
((imusical.theory.note
Note
(dp1344
g10
I77
sbtp1345
sbF0.25
tp1346
a(F2.25
(imusical.theory.chord
Chord
(dp1347
g8
((imusical.theory.note
Note
(dp1348
g10
I76
sbtp1349
sbF0.25
tp1350
a(F2.5
(imusical.theory.chord
Chord
(dp1351
g8
((imusical.theory.note
Note
(dp1352
g10
I80
sbtp1353
sbF0.25
tp1354
a(F2.75
(imusical.theory.chord
Chord
(dp1355
g8
((imusical.theory.note
Note
(dp1356
g10
I74
sbtp1357
sbF0.25
tp1358
a(F3
(imusical.theory.chord
Chord
(dp1359
g8
((imusical.theory.note
Note
(dp1360
g10
I56
sbtp1361
sbF0.25
tp1362
a(F3.25
(imusical.theory.chord
Chord
(dp1363
g8
((imusical.theory.note
Note
(dp1364
g10
I68
sbtp1365
sbF0.25
tp1366
a(F3.5
(imusical.theory.chord
Chord
(dp1367
g8
((imusical.theory.note
Note
(dp1368
g10
I75
sbtp1369
sbF0.25
tp1370
a(F3.75
(imusical.theory.chord
Chord
(dp1371
g8
((imusical.theory.note
Note
(dp1372
g10
I70
sbtp1373
sbF0.25
tp1374
asg97
g98
(g100
S'\xba\xab\x17H'
tRp1375
sg102
g103
sg104
S'song-3V5-7.wav'
p1376
sg106
F176.29589509963989
sg107
(lp1377
(F0
(imusical.theory.chord
Chord
(dp1378
g8
((imusical.theory.note
Note
(dp1379
g10
I47
sb(imusical.theory.note
Note
(dp1380
g10
I51
sb(imusical.theory.note
Note
(dp1381
g10
I54
sbtp1382
sbF1
tp1383
a(F1
(imusical.theory.chord
Chord
(dp1384
g8
((imusical.theory.note
Note
(dp1385
g10
I54
sb(imusical.theory.note
Note
(dp1386
g10
I58
sb(imusical.theory.note
Note
(dp1387
g10
I61
sbtp1388
sbF1
tp1389
a(F2
(imusical.theory.chord
Chord
(dp1390
g8
((imusical.theory.note
Note
(dp1391
g10
I56
sb(imusical.theory.note
Note
(dp1392
g10
I59
sb(imusical.theory.note
Note
(dp1393
g10
I63
sbtp1394
sbF1
tp1395
a(F3
(imusical.theory.chord
Chord
(dp1396
g8
((imusical.theory.note
Note
(dp1397
g10
I52
sb(imusical.theory.note
Note
(dp1398
g10
I56
sb(imusical.theory.note
Note
(dp1399
g10
I59
sbtp1400
sbF1
tp1401
a(F0
(imusical.theory.chord
Chord
(dp1402
g8
((imusical.theory.note
Note
(dp1403
g10
I54
sbtp1404
sbF0.25
tp1405
a(F0.25
(imusical.theory.chord
Chord
(dp1406
g8
((imusical.theory.note
Note
(dp1407
g10
I56
sbtp1408
sbF0.25
tp1409
a(F0.5
(imusical.theory.chord
Chord
(dp1410
g8
((imusical.theory.note
Note
(dp1411
g10
I59
sbtp1412
sbF0.25
tp1413
a(F0.75
(imusical.theory.chord
Chord
(dp1414
g8
((imusical.theory.note
Note
(dp1415
g10
I66
sbtp1416
sbF0.25
tp1417
a(F1
(imusical.theory.chord
Chord
(dp1418
g8
((imusical.theory.note
Note
(dp1419
g10
I64
sbtp1420
sbF0.25
tp1421
a(F1.25
(imusical.theory.chord
Chord
(dp1422
g8
((imusical.theory.note
Note
(dp1423
g10
I59
sbtp1424
sbF0.25
tp1425
a(F1.5
(imusical.theory.chord
Chord
(dp1426
g8
((imusical.theory.note
Note
(dp1427
g10
I63
sbtp1428
sbF0.25
tp1429
a(F1.75
(imusical.theory.chord
Chord
(dp1430
g8
((imusical.theory.note
Note
(dp1431
g10
I64
sbtp1432
sbF0.25
tp1433
a(F2
(imusical.theory.chord
Chord
(dp1434
g8
((imusical.theory.note
Note
(dp1435
g10
I70
sbtp1436
sbF0.25
tp1437
a(F2.25
(imusical.theory.chord
Chord
(dp1438
g8
((imusical.theory.note
Note
(dp1439
g10
I71
sbtp1440
sbF0.25
tp1441
a(F2.5
(imusical.theory.chord
Chord
(dp1442
g8
((imusical.theory.note
Note
(dp1443
g10
I73
sbtp1444
sbF0.25
tp1445
a(F2.75
(imusical.theory.chord
Chord
(dp1446
g8
((imusical.theory.note
Note
(dp1447
g10
I71
sbtp1448
sbF0.25
tp1449
a(F3
(imusical.theory.chord
Chord
(dp1450
g8
((imusical.theory.note
Note
(dp1451
g10
I68
sbtp1452
sbF0.25
tp1453
a(F3.25
(imusical.theory.chord
Chord
(dp1454
g8
((imusical.theory.note
Note
(dp1455
g10
I71
sbtp1456
sbF0.25
tp1457
a(F3.5
(imusical.theory.chord
Chord
(dp1458
g8
((imusical.theory.note
Note
(dp1459
g10
I73
sbtp1460
sbF0.25
tp1461
a(F3.75
(imusical.theory.chord
Chord
(dp1462
g8
((imusical.theory.note
Note
(dp1463
g10
I70
sbtp1464
sbF0.25
tp1465
asg197
I800
sg198
F16.020494686494548
sa(dp1466
g3
g4
sg5
(lp1467
(F0
(imusical.theory.chord
Chord
(dp1468
g8
((imusical.theory.note
Note
(dp1469
g10
I40
sb(imusical.theory.note
Note
(dp1470
g10
I44
sb(imusical.theory.note
Note
(dp1471
g10
I47
sbtp1472
sbF1
tp1473
a(F1
(imusical.theory.chord
Chord
(dp1474
g8
((imusical.theory.note
Note
(dp1475
g10
I47
sb(imusical.theory.note
Note
(dp1476
g10
I51
sb(imusical.theory.note
Note
(dp1477
g10
I54
sbtp1478
sbF1
tp1479
a(F2
(imusical.theory.chord
Chord
(dp1480
g8
((imusical.theory.note
Note
(dp1481
g10
I45
sb(imusical.theory.note
Note
(dp1482
g10
I49
sb(imusical.theory.note
Note
(dp1483
g10
I52
sbtp1484
sbF1
tp1485
a(F3
(imusical.theory.chord
Chord
(dp1486
g8
((imusical.theory.note
Note
(dp1487
g10
I45
sb(imusical.theory.note
Note
(dp1488
g10
I49
sb(imusical.theory.note
Note
(dp1489
g10
I52
sbtp1490
sbF1
tp1491
a(F0
(imusical.theory.chord
Chord
(dp1492
g8
((imusical.theory.note
Note
(dp1493
g10
I44
sbtp1494
sbF0.25
tp1495
a(F0.25
(imusical.theory.chord
Chord
(dp1496
g8
((imusical.theory.note
Note
(dp1497
g10
I70
sbtp1498
sbF0.25
tp1499
a(F0.5
(imusical.theory.chord
Chord
(dp1500
g8
((imusical.theory.note
Note
(dp1501
g10
I64
sbtp1502
sbF0.25
tp1503
a(F0.75
(imusical.theory.chord
Chord
(dp1504
g8
((imusical.theory.note
Note
(dp1505
g10
I62
sbtp1506
sbF0.25
tp1507
a(F1
(imusical.theory.chord
Chord
(dp1508
g8
((imusical.theory.note
Note
(dp1509
g10
I59
sbtp1510
sbF0.25
tp1511
a(F1.25
(imusical.theory.chord
Chord
(dp1512
g8
((imusical.theory.note
Note
(dp1513
g10
I76
sbtp1514
sbF0.25
tp1515
a(F1.5
(imusical.theory.chord
Chord
(dp1516
g8
((imusical.theory.note
Note
(dp1517
g10
I76
sbtp1518
sbF0.25
tp1519
a(F1.75
(imusical.theory.chord
Chord
(dp1520
g8
((imusical.theory.note
Note
(dp1521
g10
I78
sbtp1522
sbF0.25
tp1523
a(F2
(imusical.theory.chord
Chord
(dp1524
g8
((imusical.theory.note
Note
(dp1525
g10
I49
sbtp1526
sbF0.25
tp1527
a(F2.25
(imusical.theory.chord
Chord
(dp1528
g8
((imusical.theory.note
Note
(dp1529
g10
I80
sbtp1530
sbF0.25
tp1531
a(F2.5
(imusical.theory.chord
Chord
(dp1532
g8
((imusical.theory.note
Note
(dp1533
g10
I75
sbtp1534
sbF0.25
tp1535
a(F2.75
(imusical.theory.chord
Chord
(dp1536
g8
((imusical.theory.note
Note
(dp1537
g10
I76
sbtp1538
sbF0.25
tp1539
a(F3
(imusical.theory.chord
Chord
(dp1540
g8
((imusical.theory.note
Note
(dp1541
g10
I49
sbtp1542
sbF0.25
tp1543
a(F3.25
(imusical.theory.chord
Chord
(dp1544
g8
((imusical.theory.note
Note
(dp1545
g10
I71
sbtp1546
sbF0.25
tp1547
a(F3.5
(imusical.theory.chord
Chord
(dp1548
g8
((imusical.theory.note
Note
(dp1549
g10
I69
sbtp1550
sbF0.25
tp1551
a(F3.75
(imusical.theory.chord
Chord
(dp1552
g8
((imusical.theory.note
Note
(dp1553
g10
I73
sbtp1554
sbF0.25
tp1555
asg97
g98
(g100
S'\x8b\xe4rG'
tRp1556
sg102
g103
sg104
S'song-3V5-8.wav'
p1557
sg106
F171.65534996986389
sg107
(lp1558
(F0
(imusical.theory.chord
Chord
(dp1559
g8
((imusical.theory.note
Note
(dp1560
g10
I40
sb(imusical.theory.note
Note
(dp1561
g10
I44
sb(imusical.theory.note
Note
(dp1562
g10
I47
sbtp1563
sbF1
tp1564
a(F1
(imusical.theory.chord
Chord
(dp1565
g8
((imusical.theory.note
Note
(dp1566
g10
I47
sb(imusical.theory.note
Note
(dp1567
g10
I51
sb(imusical.theory.note
Note
(dp1568
g10
I54
sbtp1569
sbF1
tp1570
a(F2
(imusical.theory.chord
Chord
(dp1571
g8
((imusical.theory.note
Note
(dp1572
g10
I49
sb(imusical.theory.note
Note
(dp1573
g10
I52
sb(imusical.theory.note
Note
(dp1574
g10
I56
sbtp1575
sbF1
tp1576
a(F3
(imusical.theory.chord
Chord
(dp1577
g8
((imusical.theory.note
Note
(dp1578
g10
I45
sb(imusical.theory.note
Note
(dp1579
g10
I49
sb(imusical.theory.note
Note
(dp1580
g10
I52
sbtp1581
sbF1
tp1582
a(F0
(imusical.theory.chord
Chord
(dp1583
g8
((imusical.theory.note
Note
(dp1584
g10
I57
sbtp1585
sbF0.25
tp1586
a(F0.25
(imusical.theory.chord
Chord
(dp1587
g8
((imusical.theory.note
Note
(dp1588
g10
I64
sbtp1589
sbF0.25
tp1590
a(F0.5
(imusical.theory.chord
Chord
(dp1591
g8
((imusical.theory.note
Note
(dp1592
g10
I64
sbtp1593
sbF0.25
tp1594
a(F0.75
(imusical.theory.chord
Chord
(dp1595
g8
((imusical.theory.note
Note
(dp1596
g10
I69
sbtp1597
sbF0.25
tp1598
a(F1
(imusical.theory.chord
Chord
(dp1599
g8
((imusical.theory.note
Note
(dp1600
g10
I71
sbtp1601
sbF0.25
tp1602
a(F1.25
(imusical.theory.chord
Chord
(dp1603
g8
((imusical.theory.note
Note
(dp1604
g10
I78
sbtp1605
sbF0.25
tp1606
a(F1.5
(imusical.theory.chord
Chord
(dp1607
g8
((imusical.theory.note
Note
(dp1608
g10
I76
sbtp1609
sbF0.25
tp1610
a(F1.75
(imusical.theory.chord
Chord
(dp1611
g8
((imusical.theory.note
Note
(dp1612
g10
I78
sbtp1613
sbF0.25
tp1614
a(F2
(imusical.theory.chord
Chord
(dp1615
g8
((imusical.theory.note
Note
(dp1616
g10
I80
sbtp1617
sbF0.25
tp1618
a(F2.25
(imusical.theory.chord
Chord
(dp1619
g8
((imusical.theory.note
Note
(dp1620
g10
I80
sbtp1621
sbF0.25
tp1622
a(F2.5
(imusical.theory.chord
Chord
(dp1623
g8
((imusical.theory.note
Note
(dp1624
g10
I76
sbtp1625
sbF0.25
tp1626
a(F2.75
(imusical.theory.chord
Chord
(dp1627
g8
((imusical.theory.note
Note
(dp1628
g10
I76
sbtp1629
sbF0.25
tp1630
a(F3
(imusical.theory.chord
Chord
(dp1631
g8
((imusical.theory.note
Note
(dp1632
g10
I75
sbtp1633
sbF0.25
tp1634
a(F3.25
(imusical.theory.chord
Chord
(dp1635
g8
((imusical.theory.note
Note
(dp1636
g10
I75
sbtp1637
sbF0.25
tp1638
a(F3.5
(imusical.theory.chord
Chord
(dp1639
g8
((imusical.theory.note
Note
(dp1640
g10
I69
sbtp1641
sbF0.25
tp1642
a(F3.75
(imusical.theory.chord
Chord
(dp1643
g8
((imusical.theory.note
Note
(dp1644
g10
I75
sbtp1645
sbF0.25
tp1646
asg197
I800
sg198
F22.741069675809008
sa(dp1647
g3
g4
sg5
(lp1648
(F0
(imusical.theory.chord
Chord
(dp1649
g8
((imusical.theory.note
Note
(dp1650
g10
I39
sb(imusical.theory.note
Note
(dp1651
g10
I43
sb(imusical.theory.note
Note
(dp1652
g10
I46
sbtp1653
sbF1
tp1654
a(F1
(imusical.theory.chord
Chord
(dp1655
g8
((imusical.theory.note
Note
(dp1656
g10
I46
sb(imusical.theory.note
Note
(dp1657
g10
I50
sb(imusical.theory.note
Note
(dp1658
g10
I53
sbtp1659
sbF1
tp1660
a(F2
(imusical.theory.chord
Chord
(dp1661
g8
((imusical.theory.note
Note
(dp1662
g10
I51
sb(imusical.theory.note
Note
(dp1663
g10
I55
sb(imusical.theory.note
Note
(dp1664
g10
I58
sbtp1665
sbF1
tp1666
a(F3
(imusical.theory.chord
Chord
(dp1667
g8
((imusical.theory.note
Note
(dp1668
g10
I44
sb(imusical.theory.note
Note
(dp1669
g10
I48
sb(imusical.theory.note
Note
(dp1670
g10
I51
sbtp1671
sbF1
tp1672
a(F0
(imusical.theory.chord
Chord
(dp1673
g8
((imusical.theory.note
Note
(dp1674
g10
I46
sbtp1675
sbF0.25
tp1676
a(F0.25
(imusical.theory.chord
Chord
(dp1677
g8
((imusical.theory.note
Note
(dp1678
g10
I58
sbtp1679
sbF0.25
tp1680
a(F0.5
(imusical.theory.chord
Chord
(dp1681
g8
((imusical.theory.note
Note
(dp1682
g10
I60
sbtp1683
sbF0.25
tp1684
a(F0.75
(imusical.theory.chord
Chord
(dp1685
g8
((imusical.theory.note
Note
(dp1686
g10
I55
sbtp1687
sbF0.25
tp1688
a(F1
(imusical.theory.chord
Chord
(dp1689
g8
((imusical.theory.note
Note
(dp1690
g10
I50
sbtp1691
sbF0.25
tp1692
a(F1.25
(imusical.theory.chord
Chord
(dp1693
g8
((imusical.theory.note
Note
(dp1694
g10
I51
sbtp1695
sbF0.25
tp1696
a(F1.5
(imusical.theory.chord
Chord
(dp1697
g8
((imusical.theory.note
Note
(dp1698
g10
I55
sbtp1699
sbF0.25
tp1700
a(F1.75
(imusical.theory.chord
Chord
(dp1701
g8
((imusical.theory.note
Note
(dp1702
g10
I51
sbtp1703
sbF0.25
tp1704
a(F2
(imusical.theory.chord
Chord
(dp1705
g8
((imusical.theory.note
Note
(dp1706
g10
I48
sbtp1707
sbF0.25
tp1708
a(F2.25
(imusical.theory.chord
Chord
(dp1709
g8
((imusical.theory.note
Note
(dp1710
g10
I56
sbtp1711
sbF0.25
tp1712
a(F2.5
(imusical.theory.chord
Chord
(dp1713
g8
((imusical.theory.note
Note
(dp1714
g10
I58
sbtp1715
sbF0.25
tp1716
a(F2.75
(imusical.theory.chord
Chord
(dp1717
g8
((imusical.theory.note
Note
(dp1718
g10
I60
sbtp1719
sbF0.25
tp1720
a(F3
(imusical.theory.chord
Chord
(dp1721
g8
((imusical.theory.note
Note
(dp1722
g10
I68
sbtp1723
sbF0.25
tp1724
a(F3.25
(imusical.theory.chord
Chord
(dp1725
g8
((imusical.theory.note
Note
(dp1726
g10
I55
sbtp1727
sbF0.25
tp1728
a(F3.5
(imusical.theory.chord
Chord
(dp1729
g8
((imusical.theory.note
Note
(dp1730
g10
I60
sbtp1731
sbF0.25
tp1732
a(F3.75
(imusical.theory.chord
Chord
(dp1733
g8
((imusical.theory.note
Note
(dp1734
g10
I58
sbtp1735
sbF0.25
tp1736
asg97
g98
(g100
S'l\xbeZG'
tRp1737
sg102
g103
sg104
S'song-3V5-9.wav'
p1738
sg106
F164.27254605293274
sg107
(lp1739
(F0
(imusical.theory.chord
Chord
(dp1740
g8
((imusical.theory.note
Note
(dp1741
g10
I39
sb(imusical.theory.note
Note
(dp1742
g10
I43
sb(imusical.theory.note
Note
(dp1743
g10
I46
sbtp1744
sbF1
tp1745
a(F1
(imusical.theory.chord
Chord
(dp1746
g8
((imusical.theory.note
Note
(dp1747
g10
I46
sb(imusical.theory.note
Note
(dp1748
g10
I50
sb(imusical.theory.note
Note
(dp1749
g10
I53
sbtp1750
sbF1
tp1751
a(F2
(imusical.theory.chord
Chord
(dp1752
g8
((imusical.theory.note
Note
(dp1753
g10
I48
sb(imusical.theory.note
Note
(dp1754
g10
I51
sb(imusical.theory.note
Note
(dp1755
g10
I55
sbtp1756
sbF1
tp1757
a(F3
(imusical.theory.chord
Chord
(dp1758
g8
((imusical.theory.note
Note
(dp1759
g10
I44
sb(imusical.theory.note
Note
(dp1760
g10
I48
sb(imusical.theory.note
Note
(dp1761
g10
I51
sbtp1762
sbF1
tp1763
a(F0
(imusical.theory.chord
Chord
(dp1764
g8
((imusical.theory.note
Note
(dp1765
g10
I60
sbtp1766
sbF0.25
tp1767
a(F0.25
(imusical.theory.chord
Chord
(dp1768
g8
((imusical.theory.note
Note
(dp1769
g10
I58
sbtp1770
sbF0.25
tp1771
a(F0.5
(imusical.theory.chord
Chord
(dp1772
g8
((imusical.theory.note
Note
(dp1773
g10
I60
sbtp1774
sbF0.25
tp1775
a(F0.75
(imusical.theory.chord
Chord
(dp1776
g8
((imusical.theory.note
Note
(dp1777
g10
I55
sbtp1778
sbF0.25
tp1779
a(F1
(imusical.theory.chord
Chord
(dp1780
g8
((imusical.theory.note
Note
(dp1781
g10
I50
sbtp1782
sbF0.25
tp1783
a(F1.25
(imusical.theory.chord
Chord
(dp1784
g8
((imusical.theory.note
Note
(dp1785
g10
I51
sbtp1786
sbF0.25
tp1787
a(F1.5
(imusical.theory.chord
Chord
(dp1788
g8
((imusical.theory.note
Note
(dp1789
g10
I55
sbtp1790
sbF0.25
tp1791
a(F1.75
(imusical.theory.chord
Chord
(dp1792
g8
((imusical.theory.note
Note
(dp1793
g10
I51
sbtp1794
sbF0.25
tp1795
a(F2
(imusical.theory.chord
Chord
(dp1796
g8
((imusical.theory.note
Note
(dp1797
g10
I51
sbtp1798
sbF0.25
tp1799
a(F2.25
(imusical.theory.chord
Chord
(dp1800
g8
((imusical.theory.note
Note
(dp1801
g10
I56
sbtp1802
sbF0.25
tp1803
a(F2.5
(imusical.theory.chord
Chord
(dp1804
g8
((imusical.theory.note
Note
(dp1805
g10
I58
sbtp1806
sbF0.25
tp1807
a(F2.75
(imusical.theory.chord
Chord
(dp1808
g8
((imusical.theory.note
Note
(dp1809
g10
I53
sbtp1810
sbF0.25
tp1811
a(F3
(imusical.theory.chord
Chord
(dp1812
g8
((imusical.theory.note
Note
(dp1813
g10
I55
sbtp1814
sbF0.25
tp1815
a(F3.25
(imusical.theory.chord
Chord
(dp1816
g8
((imusical.theory.note
Note
(dp1817
g10
I55
sbtp1818
sbF0.25
tp1819
a(F3.5
(imusical.theory.chord
Chord
(dp1820
g8
((imusical.theory.note
Note
(dp1821
g10
I60
sbtp1822
sbF0.25
tp1823
a(F3.75
(imusical.theory.chord
Chord
(dp1824
g8
((imusical.theory.note
Note
(dp1825
g10
I60
sbtp1826
sbF0.25
tp1827
asg197
I800
sg198
F13.941171041200233
sa(dp1828
g3
g4
sg5
(lp1829
(F0
(imusical.theory.chord
Chord
(dp1830
g8
((imusical.theory.note
Note
(dp1831
g10
I40
sb(imusical.theory.note
Note
(dp1832
g10
I44
sb(imusical.theory.note
Note
(dp1833
g10
I47
sbtp1834
sbF1
tp1835
a(F1
(imusical.theory.chord
Chord
(dp1836
g8
((imusical.theory.note
Note
(dp1837
g10
I51
sb(imusical.theory.note
Note
(dp1838
g10
I54
sb(imusical.theory.note
Note
(dp1839
g10
I58
sbtp1840
sbF1
tp1841
a(F2
(imusical.theory.chord
Chord
(dp1842
g8
((imusical.theory.note
Note
(dp1843
g10
I49
sb(imusical.theory.note
Note
(dp1844
g10
I52
sb(imusical.theory.note
Note
(dp1845
g10
I56
sbtp1846
sbF1
tp1847
a(F3
(imusical.theory.chord
Chord
(dp1848
g8
((imusical.theory.note
Note
(dp1849
g10
I45
sb(imusical.theory.note
Note
(dp1850
g10
I49
sb(imusical.theory.note
Note
(dp1851
g10
I52
sbtp1852
sbF1
tp1853
a(F0
(imusical.theory.chord
Chord
(dp1854
g8
((imusical.theory.note
Note
(dp1855
g10
I47
sbtp1856
sbF0.25
tp1857
a(F0.25
(imusical.theory.chord
Chord
(dp1858
g8
((imusical.theory.note
Note
(dp1859
g10
I59
sbtp1860
sbF0.25
tp1861
a(F0.5
(imusical.theory.chord
Chord
(dp1862
g8
((imusical.theory.note
Note
(dp1863
g10
I63
sbtp1864
sbF0.25
tp1865
a(F0.75
(imusical.theory.chord
Chord
(dp1866
g8
((imusical.theory.note
Note
(dp1867
g10
I63
sbtp1868
sbF0.25
tp1869
a(F1
(imusical.theory.chord
Chord
(dp1870
g8
((imusical.theory.note
Note
(dp1871
g10
I47
sbtp1872
sbF0.25
tp1873
a(F1.25
(imusical.theory.chord
Chord
(dp1874
g8
((imusical.theory.note
Note
(dp1875
g10
I68
sbtp1876
sbF0.25
tp1877
a(F1.5
(imusical.theory.chord
Chord
(dp1878
g8
((imusical.theory.note
Note
(dp1879
g10
I53
sbtp1880
sbF0.25
tp1881
a(F1.75
(imusical.theory.chord
Chord
(dp1882
g8
((imusical.theory.note
Note
(dp1883
g10
I54
sbtp1884
sbF0.25
tp1885
a(F2
(imusical.theory.chord
Chord
(dp1886
g8
((imusical.theory.note
Note
(dp1887
g10
I56
sbtp1888
sbF0.25
tp1889
a(F2.25
(imusical.theory.chord
Chord
(dp1890
g8
((imusical.theory.note
Note
(dp1891
g10
I64
sbtp1892
sbF0.25
tp1893
a(F2.5
(imusical.theory.chord
Chord
(dp1894
g8
((imusical.theory.note
Note
(dp1895
g10
I75
sbtp1896
sbF0.25
tp1897
a(F2.75
(imusical.theory.chord
Chord
(dp1898
g8
((imusical.theory.note
Note
(dp1899
g10
I73
sbtp1900
sbF0.25
tp1901
a(F3
(imusical.theory.chord
Chord
(dp1902
g8
((imusical.theory.note
Note
(dp1903
g10
I77
sbtp1904
sbF0.25
tp1905
a(F3.25
(imusical.theory.chord
Chord
(dp1906
g8
((imusical.theory.note
Note
(dp1907
g10
I69
sbtp1908
sbF0.25
tp1909
a(F3.5
(imusical.theory.chord
Chord
(dp1910
g8
((imusical.theory.note
Note
(dp1911
g10
I78
sbtp1912
sbF0.25
tp1913
a(F3.75
(imusical.theory.chord
Chord
(dp1914
g8
((imusical.theory.note
Note
(dp1915
g10
I85
sbtp1916
sbF0.25
tp1917
asg97
g98
(g100
S'z\x1dNG'
tRp1918
sg102
g103
sg104
S'song-3V5-10.wav'
p1919
sg106
F165.81753897666931
sg107
(lp1920
(F0
(imusical.theory.chord
Chord
(dp1921
g8
((imusical.theory.note
Note
(dp1922
g10
I40
sb(imusical.theory.note
Note
(dp1923
g10
I44
sb(imusical.theory.note
Note
(dp1924
g10
I47
sbtp1925
sbF1
tp1926
a(F1
(imusical.theory.chord
Chord
(dp1927
g8
((imusical.theory.note
Note
(dp1928
g10
I47
sb(imusical.theory.note
Note
(dp1929
g10
I51
sb(imusical.theory.note
Note
(dp1930
g10
I54
sbtp1931
sbF1
tp1932
a(F2
(imusical.theory.chord
Chord
(dp1933
g8
((imusical.theory.note
Note
(dp1934
g10
I49
sb(imusical.theory.note
Note
(dp1935
g10
I52
sb(imusical.theory.note
Note
(dp1936
g10
I56
sbtp1937
sbF1
tp1938
a(F3
(imusical.theory.chord
Chord
(dp1939
g8
((imusical.theory.note
Note
(dp1940
g10
I45
sb(imusical.theory.note
Note
(dp1941
g10
I49
sb(imusical.theory.note
Note
(dp1942
g10
I52
sbtp1943
sbF1
tp1944
a(F0
(imusical.theory.chord
Chord
(dp1945
g8
((imusical.theory.note
Note
(dp1946
g10
I56
sbtp1947
sbF0.25
tp1948
a(F0.25
(imusical.theory.chord
Chord
(dp1949
g8
((imusical.theory.note
Note
(dp1950
g10
I59
sbtp1951
sbF0.25
tp1952
a(F0.5
(imusical.theory.chord
Chord
(dp1953
g8
((imusical.theory.note
Note
(dp1954
g10
I63
sbtp1955
sbF0.25
tp1956
a(F0.75
(imusical.theory.chord
Chord
(dp1957
g8
((imusical.theory.note
Note
(dp1958
g10
I63
sbtp1959
sbF0.25
tp1960
a(F1
(imusical.theory.chord
Chord
(dp1961
g8
((imusical.theory.note
Note
(dp1962
g10
I68
sbtp1963
sbF0.25
tp1964
a(F1.25
(imusical.theory.chord
Chord
(dp1965
g8
((imusical.theory.note
Note
(dp1966
g10
I71
sbtp1967
sbF0.25
tp1968
a(F1.5
(imusical.theory.chord
Chord
(dp1969
g8
((imusical.theory.note
Note
(dp1970
g10
I59
sbtp1971
sbF0.25
tp1972
a(F1.75
(imusical.theory.chord
Chord
(dp1973
g8
((imusical.theory.note
Note
(dp1974
g10
I54
sbtp1975
sbF0.25
tp1976
a(F2
(imusical.theory.chord
Chord
(dp1977
g8
((imusical.theory.note
Note
(dp1978
g10
I56
sbtp1979
sbF0.25
tp1980
a(F2.25
(imusical.theory.chord
Chord
(dp1981
g8
((imusical.theory.note
Note
(dp1982
g10
I64
sbtp1983
sbF0.25
tp1984
a(F2.5
(imusical.theory.chord
Chord
(dp1985
g8
((imusical.theory.note
Note
(dp1986
g10
I68
sbtp1987
sbF0.25
tp1988
a(F2.75
(imusical.theory.chord
Chord
(dp1989
g8
((imusical.theory.note
Note
(dp1990
g10
I73
sbtp1991
sbF0.25
tp1992
a(F3
(imusical.theory.chord
Chord
(dp1993
g8
((imusical.theory.note
Note
(dp1994
g10
I73
sbtp1995
sbF0.25
tp1996
a(F3.25
(imusical.theory.chord
Chord
(dp1997
g8
((imusical.theory.note
Note
(dp1998
g10
I69
sbtp1999
sbF0.25
tp2000
a(F3.5
(imusical.theory.chord
Chord
(dp2001
g8
((imusical.theory.note
Note
(dp2002
g10
I73
sbtp2003
sbF0.25
tp2004
a(F3.75
(imusical.theory.chord
Chord
(dp2005
g8
((imusical.theory.note
Note
(dp2006
g10
I78
sbtp2007
sbF0.25
tp2008
asg197
I800
sg198
F19.335362680849823
sa(dp2009
g3
g4
sg5
(lp2010
(F0
(imusical.theory.chord
Chord
(dp2011
g8
((imusical.theory.note
Note
(dp2012
g10
I36
sb(imusical.theory.note
Note
(dp2013
g10
I40
sb(imusical.theory.note
Note
(dp2014
g10
I43
sbtp2015
sbF1
tp2016
a(F1
(imusical.theory.chord
Chord
(dp2017
g8
((imusical.theory.note
Note
(dp2018
g10
I43
sb(imusical.theory.note
Note
(dp2019
g10
I47
sb(imusical.theory.note
Note
(dp2020
g10
I50
sbtp2021
sbF1
tp2022
a(F2
(imusical.theory.chord
Chord
(dp2023
g8
((imusical.theory.note
Note
(dp2024
g10
I42
sb(imusical.theory.note
Note
(dp2025
g10
I45
sb(imusical.theory.note
Note
(dp2026
g10
I49
sbtp2027
sbF1
tp2028
a(F3
(imusical.theory.chord
Chord
(dp2029
g8
((imusical.theory.note
Note
(dp2030
g10
I41
sb(imusical.theory.note
Note
(dp2031
g10
I45
sb(imusical.theory.note
Note
(dp2032
g10
I48
sbtp2033
sbF1
tp2034
a(F0
(imusical.theory.chord
Chord
(dp2035
g8
((imusical.theory.note
Note
(dp2036
g10
I60
sbtp2037
sbF0.25
tp2038
a(F0.25
(imusical.theory.chord
Chord
(dp2039
g8
((imusical.theory.note
Note
(dp2040
g10
I50
sbtp2041
sbF0.25
tp2042
a(F0.5
(imusical.theory.chord
Chord
(dp2043
g8
((imusical.theory.note
Note
(dp2044
g10
I52
sbtp2045
sbF0.25
tp2046
a(F0.75
(imusical.theory.chord
Chord
(dp2047
g8
((imusical.theory.note
Note
(dp2048
g10
I48
sbtp2049
sbF0.25
tp2050
a(F1
(imusical.theory.chord
Chord
(dp2051
g8
((imusical.theory.note
Note
(dp2052
g10
I50
sbtp2053
sbF0.25
tp2054
a(F1.25
(imusical.theory.chord
Chord
(dp2055
g8
((imusical.theory.note
Note
(dp2056
g10
I48
sbtp2057
sbF0.25
tp2058
a(F1.5
(imusical.theory.chord
Chord
(dp2059
g8
((imusical.theory.note
Note
(dp2060
g10
I47
sbtp2061
sbF0.25
tp2062
a(F1.75
(imusical.theory.chord
Chord
(dp2063
g8
((imusical.theory.note
Note
(dp2064
g10
I52
sbtp2065
sbF0.25
tp2066
a(F2
(imusical.theory.chord
Chord
(dp2067
g8
((imusical.theory.note
Note
(dp2068
g10
I45
sbtp2069
sbF0.25
tp2070
a(F2.25
(imusical.theory.chord
Chord
(dp2071
g8
((imusical.theory.note
Note
(dp2072
g10
I62
sbtp2073
sbF0.25
tp2074
a(F2.5
(imusical.theory.chord
Chord
(dp2075
g8
((imusical.theory.note
Note
(dp2076
g10
I64
sbtp2077
sbF0.25
tp2078
a(F2.75
(imusical.theory.chord
Chord
(dp2079
g8
((imusical.theory.note
Note
(dp2080
g10
I67
sbtp2081
sbF0.25
tp2082
a(F3
(imusical.theory.chord
Chord
(dp2083
g8
((imusical.theory.note
Note
(dp2084
g10
I48
sbtp2085
sbF0.25
tp2086
a(F3.25
(imusical.theory.chord
Chord
(dp2087
g8
((imusical.theory.note
Note
(dp2088
g10
I64
sbtp2089
sbF0.25
tp2090
a(F3.5
(imusical.theory.chord
Chord
(dp2091
g8
((imusical.theory.note
Note
(dp2092
g10
I64
sbtp2093
sbF0.25
tp2094
a(F3.75
(imusical.theory.chord
Chord
(dp2095
g8
((imusical.theory.note
Note
(dp2096
g10
I60
sbtp2097
sbF0.25
tp2098
asg97
g98
(g100
S'\xb1\x95ZG'
tRp2099
sg102
g103
sg104
S'song-3V5-11.wav'
p2100
sg106
F169.23852109909058
sg107
(lp2101
(F0
(imusical.theory.chord
Chord
(dp2102
g8
((imusical.theory.note
Note
(dp2103
g10
I36
sb(imusical.theory.note
Note
(dp2104
g10
I40
sb(imusical.theory.note
Note
(dp2105
g10
I43
sbtp2106
sbF1
tp2107
a(F1
(imusical.theory.chord
Chord
(dp2108
g8
((imusical.theory.note
Note
(dp2109
g10
I43
sb(imusical.theory.note
Note
(dp2110
g10
I47
sb(imusical.theory.note
Note
(dp2111
g10
I50
sbtp2112
sbF1
tp2113
a(F2
(imusical.theory.chord
Chord
(dp2114
g8
((imusical.theory.note
Note
(dp2115
g10
I45
sb(imusical.theory.note
Note
(dp2116
g10
I48
sb(imusical.theory.note
Note
(dp2117
g10
I52
sbtp2118
sbF1
tp2119
a(F3
(imusical.theory.chord
Chord
(dp2120
g8
((imusical.theory.note
Note
(dp2121
g10
I41
sb(imusical.theory.note
Note
(dp2122
g10
I45
sb(imusical.theory.note
Note
(dp2123
g10
I48
sbtp2124
sbF1
tp2125
a(F0
(imusical.theory.chord
Chord
(dp2126
g8
((imusical.theory.note
Note
(dp2127
g10
I48
sbtp2128
sbF0.25
tp2129
a(F0.25
(imusical.theory.chord
Chord
(dp2130
g8
((imusical.theory.note
Note
(dp2131
g10
I50
sbtp2132
sbF0.25
tp2133
a(F0.5
(imusical.theory.chord
Chord
(dp2134
g8
((imusical.theory.note
Note
(dp2135
g10
I52
sbtp2136
sbF0.25
tp2137
a(F0.75
(imusical.theory.chord
Chord
(dp2138
g8
((imusical.theory.note
Note
(dp2139
g10
I48
sbtp2140
sbF0.25
tp2141
a(F1
(imusical.theory.chord
Chord
(dp2142
g8
((imusical.theory.note
Note
(dp2143
g10
I50
sbtp2144
sbF0.25
tp2145
a(F1.25
(imusical.theory.chord
Chord
(dp2146
g8
((imusical.theory.note
Note
(dp2147
g10
I48
sbtp2148
sbF0.25
tp2149
a(F1.5
(imusical.theory.chord
Chord
(dp2150
g8
((imusical.theory.note
Note
(dp2151
g10
I47
sbtp2152
sbF0.25
tp2153
a(F1.75
(imusical.theory.chord
Chord
(dp2154
g8
((imusical.theory.note
Note
(dp2155
g10
I52
sbtp2156
sbF0.25
tp2157
a(F2
(imusical.theory.chord
Chord
(dp2158
g8
((imusical.theory.note
Note
(dp2159
g10
I57
sbtp2160
sbF0.25
tp2161
a(F2.25
(imusical.theory.chord
Chord
(dp2162
g8
((imusical.theory.note
Note
(dp2163
g10
I62
sbtp2164
sbF0.25
tp2165
a(F2.5
(imusical.theory.chord
Chord
(dp2166
g8
((imusical.theory.note
Note
(dp2167
g10
I64
sbtp2168
sbF0.25
tp2169
a(F2.75
(imusical.theory.chord
Chord
(dp2170
g8
((imusical.theory.note
Note
(dp2171
g10
I62
sbtp2172
sbF0.25
tp2173
a(F3
(imusical.theory.chord
Chord
(dp2174
g8
((imusical.theory.note
Note
(dp2175
g10
I57
sbtp2176
sbF0.25
tp2177
a(F3.25
(imusical.theory.chord
Chord
(dp2178
g8
((imusical.theory.note
Note
(dp2179
g10
I60
sbtp2180
sbF0.25
tp2181
a(F3.5
(imusical.theory.chord
Chord
(dp2182
g8
((imusical.theory.note
Note
(dp2183
g10
I64
sbtp2184
sbF0.25
tp2185
a(F3.75
(imusical.theory.chord
Chord
(dp2186
g8
((imusical.theory.note
Note
(dp2187
g10
I60
sbtp2188
sbF0.25
tp2189
asg197
I800
sg198
F13.876463886740023
sa(dp2190
g3
g4
sg5
(lp2191
(F0
(imusical.theory.chord
Chord
(dp2192
g8
((imusical.theory.note
Note
(dp2193
g10
I46
sb(imusical.theory.note
Note
(dp2194
g10
I50
sb(imusical.theory.note
Note
(dp2195
g10
I53
sbtp2196
sbF1
tp2197
a(F1
(imusical.theory.chord
Chord
(dp2198
g8
((imusical.theory.note
Note
(dp2199
g10
I53
sb(imusical.theory.note
Note
(dp2200
g10
I57
sb(imusical.theory.note
Note
(dp2201
g10
I60
sbtp2202
sbF1
tp2203
a(F2
(imusical.theory.chord
Chord
(dp2204
g8
((imusical.theory.note
Note
(dp2205
g10
I55
sb(imusical.theory.note
Note
(dp2206
g10
I58
sb(imusical.theory.note
Note
(dp2207
g10
I62
sbtp2208
sbF1
tp2209
a(F3
(imusical.theory.chord
Chord
(dp2210
g8
((imusical.theory.note
Note
(dp2211
g10
I55
sb(imusical.theory.note
Note
(dp2212
g10
I58
sb(imusical.theory.note
Note
(dp2213
g10
I62
sbtp2214
sbF1
tp2215
a(F0
(imusical.theory.chord
Chord
(dp2216
g8
((imusical.theory.note
Note
(dp2217
g10
I46
sbtp2218
sbF0.25
tp2219
a(F0.25
(imusical.theory.chord
Chord
(dp2220
g8
((imusical.theory.note
Note
(dp2221
g10
I57
sbtp2222
sbF0.25
tp2223
a(F0.5
(imusical.theory.chord
Chord
(dp2224
g8
((imusical.theory.note
Note
(dp2225
g10
I60
sbtp2226
sbF0.25
tp2227
a(F0.75
(imusical.theory.chord
Chord
(dp2228
g8
((imusical.theory.note
Note
(dp2229
g10
I68
sbtp2230
sbF0.25
tp2231
a(F1
(imusical.theory.chord
Chord
(dp2232
g8
((imusical.theory.note
Note
(dp2233
g10
I57
sbtp2234
sbF0.25
tp2235
a(F1.25
(imusical.theory.chord
Chord
(dp2236
g8
((imusical.theory.note
Note
(dp2237
g10
I65
sbtp2238
sbF0.25
tp2239
a(F1.5
(imusical.theory.chord
Chord
(dp2240
g8
((imusical.theory.note
Note
(dp2241
g10
I53
sbtp2242
sbF0.25
tp2243
a(F1.75
(imusical.theory.chord
Chord
(dp2244
g8
((imusical.theory.note
Note
(dp2245
g10
I75
sbtp2246
sbF0.25
tp2247
a(F2
(imusical.theory.chord
Chord
(dp2248
g8
((imusical.theory.note
Note
(dp2249
g10
I67
sbtp2250
sbF0.25
tp2251
a(F2.25
(imusical.theory.chord
Chord
(dp2252
g8
((imusical.theory.note
Note
(dp2253
g10
I79
sbtp2254
sbF0.25
tp2255
a(F2.5
(imusical.theory.chord
Chord
(dp2256
g8
((imusical.theory.note
Note
(dp2257
g10
I81
sbtp2258
sbF0.25
tp2259
a(F2.75
(imusical.theory.chord
Chord
(dp2260
g8
((imusical.theory.note
Note
(dp2261
g10
I81
sbtp2262
sbF0.25
tp2263
a(F3
(imusical.theory.chord
Chord
(dp2264
g8
((imusical.theory.note
Note
(dp2265
g10
I51
sbtp2266
sbF0.25
tp2267
a(F3.25
(imusical.theory.chord
Chord
(dp2268
g8
((imusical.theory.note
Note
(dp2269
g10
I75
sbtp2270
sbF0.25
tp2271
a(F3.5
(imusical.theory.chord
Chord
(dp2272
g8
((imusical.theory.note
Note
(dp2273
g10
I75
sbtp2274
sbF0.25
tp2275
a(F3.75
(imusical.theory.chord
Chord
(dp2276
g8
((imusical.theory.note
Note
(dp2277
g10
I75
sbtp2278
sbF0.25
tp2279
asg97
g98
(g100
S'\xd0\x06\xa3G'
tRp2280
sg102
g103
sg104
S'song-3V5-12.wav'
p2281
sg106
F174.8639988899231
sg107
(lp2282
(F0
(imusical.theory.chord
Chord
(dp2283
g8
((imusical.theory.note
Note
(dp2284
g10
I46
sb(imusical.theory.note
Note
(dp2285
g10
I50
sb(imusical.theory.note
Note
(dp2286
g10
I53
sbtp2287
sbF1
tp2288
a(F1
(imusical.theory.chord
Chord
(dp2289
g8
((imusical.theory.note
Note
(dp2290
g10
I53
sb(imusical.theory.note
Note
(dp2291
g10
I57
sb(imusical.theory.note
Note
(dp2292
g10
I60
sbtp2293
sbF1
tp2294
a(F2
(imusical.theory.chord
Chord
(dp2295
g8
((imusical.theory.note
Note
(dp2296
g10
I55
sb(imusical.theory.note
Note
(dp2297
g10
I58
sb(imusical.theory.note
Note
(dp2298
g10
I62
sbtp2299
sbF1
tp2300
a(F3
(imusical.theory.chord
Chord
(dp2301
g8
((imusical.theory.note
Note
(dp2302
g10
I51
sb(imusical.theory.note
Note
(dp2303
g10
I55
sb(imusical.theory.note
Note
(dp2304
g10
I58
sbtp2305
sbF1
tp2306
a(F0
(imusical.theory.chord
Chord
(dp2307
g8
((imusical.theory.note
Note
(dp2308
g10
I53
sbtp2309
sbF0.25
tp2310
a(F0.25
(imusical.theory.chord
Chord
(dp2311
g8
((imusical.theory.note
Note
(dp2312
g10
I57
sbtp2313
sbF0.25
tp2314
a(F0.5
(imusical.theory.chord
Chord
(dp2315
g8
((imusical.theory.note
Note
(dp2316
g10
I60
sbtp2317
sbF0.25
tp2318
a(F0.75
(imusical.theory.chord
Chord
(dp2319
g8
((imusical.theory.note
Note
(dp2320
g10
I63
sbtp2321
sbF0.25
tp2322
a(F1
(imusical.theory.chord
Chord
(dp2323
g8
((imusical.theory.note
Note
(dp2324
g10
I70
sbtp2325
sbF0.25
tp2326
a(F1.25
(imusical.theory.chord
Chord
(dp2327
g8
((imusical.theory.note
Note
(dp2328
g10
I69
sbtp2329
sbF0.25
tp2330
a(F1.5
(imusical.theory.chord
Chord
(dp2331
g8
((imusical.theory.note
Note
(dp2332
g10
I72
sbtp2333
sbF0.25
tp2334
a(F1.75
(imusical.theory.chord
Chord
(dp2335
g8
((imusical.theory.note
Note
(dp2336
g10
I75
sbtp2337
sbF0.25
tp2338
a(F2
(imusical.theory.chord
Chord
(dp2339
g8
((imusical.theory.note
Note
(dp2340
g10
I75
sbtp2341
sbF0.25
tp2342
a(F2.25
(imusical.theory.chord
Chord
(dp2343
g8
((imusical.theory.note
Note
(dp2344
g10
I79
sbtp2345
sbF0.25
tp2346
a(F2.5
(imusical.theory.chord
Chord
(dp2347
g8
((imusical.theory.note
Note
(dp2348
g10
I81
sbtp2349
sbF0.25
tp2350
a(F2.75
(imusical.theory.chord
Chord
(dp2351
g8
((imusical.theory.note
Note
(dp2352
g10
I89
sbtp2353
sbF0.25
tp2354
a(F3
(imusical.theory.chord
Chord
(dp2355
g8
((imusical.theory.note
Note
(dp2356
g10
I91
sbtp2357
sbF0.25
tp2358
a(F3.25
(imusical.theory.chord
Chord
(dp2359
g8
((imusical.theory.note
Note
(dp2360
g10
I93
sbtp2361
sbF0.25
tp2362
a(F3.5
(imusical.theory.chord
Chord
(dp2363
g8
((imusical.theory.note
Note
(dp2364
g10
I93
sbtp2365
sbF0.25
tp2366
a(F3.75
(imusical.theory.chord
Chord
(dp2367
g8
((imusical.theory.note
Note
(dp2368
g10
I93
sbtp2369
sbF0.25
tp2370
asg197
I800
sg198
F25.935617401558037
sa(dp2371
g3
g4
sg5
(lp2372
(F0
(imusical.theory.chord
Chord
(dp2373
g8
((imusical.theory.note
Note
(dp2374
g10
I49
sb(imusical.theory.note
Note
(dp2375
g10
I52
sb(imusical.theory.note
Note
(dp2376
g10
I56
sbtp2377
sbF1
tp2378
a(F1
(imusical.theory.chord
Chord
(dp2379
g8
((imusical.theory.note
Note
(dp2380
g10
I48
sb(imusical.theory.note
Note
(dp2381
g10
I52
sb(imusical.theory.note
Note
(dp2382
g10
I55
sbtp2383
sbF1
tp2384
a(F2
(imusical.theory.chord
Chord
(dp2385
g8
((imusical.theory.note
Note
(dp2386
g10
I54
sb(imusical.theory.note
Note
(dp2387
g10
I57
sb(imusical.theory.note
Note
(dp2388
g10
I61
sbtp2389
sbF1
tp2390
a(F3
(imusical.theory.chord
Chord
(dp2391
g8
((imusical.theory.note
Note
(dp2392
g10
I47
sb(imusical.theory.note
Note
(dp2393
g10
I50
sb(imusical.theory.note
Note
(dp2394
g10
I54
sbtp2395
sbF1
tp2396
a(F0
(imusical.theory.chord
Chord
(dp2397
g8
((imusical.theory.note
Note
(dp2398
g10
I45
sbtp2399
sbF0.25
tp2400
a(F0.25
(imusical.theory.chord
Chord
(dp2401
g8
((imusical.theory.note
Note
(dp2402
g10
I56
sbtp2403
sbF0.25
tp2404
a(F0.5
(imusical.theory.chord
Chord
(dp2405
g8
((imusical.theory.note
Note
(dp2406
g10
I56
sbtp2407
sbF0.25
tp2408
a(F0.75
(imusical.theory.chord
Chord
(dp2409
g8
((imusical.theory.note
Note
(dp2410
g10
I61
sbtp2411
sbF0.25
tp2412
a(F1
(imusical.theory.chord
Chord
(dp2413
g8
((imusical.theory.note
Note
(dp2414
g10
I56
sbtp2415
sbF0.25
tp2416
a(F1.25
(imusical.theory.chord
Chord
(dp2417
g8
((imusical.theory.note
Note
(dp2418
g10
I59
sbtp2419
sbF0.25
tp2420
a(F1.5
(imusical.theory.chord
Chord
(dp2421
g8
((imusical.theory.note
Note
(dp2422
g10
I54
sbtp2423
sbF0.25
tp2424
a(F1.75
(imusical.theory.chord
Chord
(dp2425
g8
((imusical.theory.note
Note
(dp2426
g10
I52
sbtp2427
sbF0.25
tp2428
a(F2
(imusical.theory.chord
Chord
(dp2429
g8
((imusical.theory.note
Note
(dp2430
g10
I54
sbtp2431
sbF0.25
tp2432
a(F2.25
(imusical.theory.chord
Chord
(dp2433
g8
((imusical.theory.note
Note
(dp2434
g10
I52
sbtp2435
sbF0.25
tp2436
a(F2.5
(imusical.theory.chord
Chord
(dp2437
g8
((imusical.theory.note
Note
(dp2438
g10
I52
sbtp2439
sbF0.25
tp2440
a(F2.75
(imusical.theory.chord
Chord
(dp2441
g8
((imusical.theory.note
Note
(dp2442
g10
I52
sbtp2443
sbF0.25
tp2444
a(F3
(imusical.theory.chord
Chord
(dp2445
g8
((imusical.theory.note
Note
(dp2446
g10
I50
sbtp2447
sbF0.25
tp2448
a(F3.25
(imusical.theory.chord
Chord
(dp2449
g8
((imusical.theory.note
Note
(dp2450
g10
I49
sbtp2451
sbF0.25
tp2452
a(F3.5
(imusical.theory.chord
Chord
(dp2453
g8
((imusical.theory.note
Note
(dp2454
g10
I49
sbtp2455
sbF0.25
tp2456
a(F3.75
(imusical.theory.chord
Chord
(dp2457
g8
((imusical.theory.note
Note
(dp2458
g10
I49
sbtp2459
sbF0.25
tp2460
asg97
g98
(g100
S'^\xe2\xb4G'
tRp2461
sg102
g103
sg104
S'song-3V5-13.wav'
p2462
sg106
F164.58205699920654
sg107
(lp2463
(F0
(imusical.theory.chord
Chord
(dp2464
g8
((imusical.theory.note
Note
(dp2465
g10
I45
sb(imusical.theory.note
Note
(dp2466
g10
I49
sb(imusical.theory.note
Note
(dp2467
g10
I52
sbtp2468
sbF1
tp2469
a(F1
(imusical.theory.chord
Chord
(dp2470
g8
((imusical.theory.note
Note
(dp2471
g10
I52
sb(imusical.theory.note
Note
(dp2472
g10
I56
sb(imusical.theory.note
Note
(dp2473
g10
I59
sbtp2474
sbF1
tp2475
a(F2
(imusical.theory.chord
Chord
(dp2476
g8
((imusical.theory.note
Note
(dp2477
g10
I54
sb(imusical.theory.note
Note
(dp2478
g10
I57
sb(imusical.theory.note
Note
(dp2479
g10
I61
sbtp2480
sbF1
tp2481
a(F3
(imusical.theory.chord
Chord
(dp2482
g8
((imusical.theory.note
Note
(dp2483
g10
I50
sb(imusical.theory.note
Note
(dp2484
g10
I54
sb(imusical.theory.note
Note
(dp2485
g10
I57
sbtp2486
sbF1
tp2487
a(F0
(imusical.theory.chord
Chord
(dp2488
g8
((imusical.theory.note
Note
(dp2489
g10
I49
sbtp2490
sbF0.25
tp2491
a(F0.25
(imusical.theory.chord
Chord
(dp2492
g8
((imusical.theory.note
Note
(dp2493
g10
I56
sbtp2494
sbF0.25
tp2495
a(F0.5
(imusical.theory.chord
Chord
(dp2496
g8
((imusical.theory.note
Note
(dp2497
g10
I56
sbtp2498
sbF0.25
tp2499
a(F0.75
(imusical.theory.chord
Chord
(dp2500
g8
((imusical.theory.note
Note
(dp2501
g10
I61
sbtp2502
sbF0.25
tp2503
a(F1
(imusical.theory.chord
Chord
(dp2504
g8
((imusical.theory.note
Note
(dp2505
g10
I59
sbtp2506
sbF0.25
tp2507
a(F1.25
(imusical.theory.chord
Chord
(dp2508
g8
((imusical.theory.note
Note
(dp2509
g10
I59
sbtp2510
sbF0.25
tp2511
a(F1.5
(imusical.theory.chord
Chord
(dp2512
g8
((imusical.theory.note
Note
(dp2513
g10
I54
sbtp2514
sbF0.25
tp2515
a(F1.75
(imusical.theory.chord
Chord
(dp2516
g8
((imusical.theory.note
Note
(dp2517
g10
I52
sbtp2518
sbF0.25
tp2519
a(F2
(imusical.theory.chord
Chord
(dp2520
g8
((imusical.theory.note
Note
(dp2521
g10
I54
sbtp2522
sbF0.25
tp2523
a(F2.25
(imusical.theory.chord
Chord
(dp2524
g8
((imusical.theory.note
Note
(dp2525
g10
I52
sbtp2526
sbF0.25
tp2527
a(F2.5
(imusical.theory.chord
Chord
(dp2528
g8
((imusical.theory.note
Note
(dp2529
g10
I52
sbtp2530
sbF0.25
tp2531
a(F2.75
(imusical.theory.chord
Chord
(dp2532
g8
((imusical.theory.note
Note
(dp2533
g10
I52
sbtp2534
sbF0.25
tp2535
a(F3
(imusical.theory.chord
Chord
(dp2536
g8
((imusical.theory.note
Note
(dp2537
g10
I57
sbtp2538
sbF0.25
tp2539
a(F3.25
(imusical.theory.chord
Chord
(dp2540
g8
((imusical.theory.note
Note
(dp2541
g10
I49
sbtp2542
sbF0.25
tp2543
a(F3.5
(imusical.theory.chord
Chord
(dp2544
g8
((imusical.theory.note
Note
(dp2545
g10
I49
sbtp2546
sbF0.25
tp2547
a(F3.75
(imusical.theory.chord
Chord
(dp2548
g8
((imusical.theory.note
Note
(dp2549
g10
I49
sbtp2550
sbF0.25
tp2551
asg197
I800
sg198
F9.233431106582211
sa(dp2552
g3
g4
sg5
(lp2553
(F0
(imusical.theory.chord
Chord
(dp2554
g8
((imusical.theory.note
Note
(dp2555
g10
I44
sb(imusical.theory.note
Note
(dp2556
g10
I48
sb(imusical.theory.note
Note
(dp2557
g10
I51
sbtp2558
sbF1
tp2559
a(F1
(imusical.theory.chord
Chord
(dp2560
g8
((imusical.theory.note
Note
(dp2561
g10
I55
sb(imusical.theory.note
Note
(dp2562
g10
I58
sb(imusical.theory.note
Note
(dp2563
g10
I62
sbtp2564
sbF1
tp2565
a(F2
(imusical.theory.chord
Chord
(dp2566
g8
((imusical.theory.note
Note
(dp2567
g10
I41
sb(imusical.theory.note
Note
(dp2568
g10
I44
sb(imusical.theory.note
Note
(dp2569
g10
I48
sbtp2570
sbF1
tp2571
a(F3
(imusical.theory.chord
Chord
(dp2572
g8
((imusical.theory.note
Note
(dp2573
g10
I49
sb(imusical.theory.note
Note
(dp2574
g10
I53
sb(imusical.theory.note
Note
(dp2575
g10
I56
sbtp2576
sbF1
tp2577
a(F0
(imusical.theory.chord
Chord
(dp2578
g8
((imusical.theory.note
Note
(dp2579
g10
I56
sbtp2580
sbF0.25
tp2581
a(F0.25
(imusical.theory.chord
Chord
(dp2582
g8
((imusical.theory.note
Note
(dp2583
g10
I63
sbtp2584
sbF0.25
tp2585
a(F0.5
(imusical.theory.chord
Chord
(dp2586
g8
((imusical.theory.note
Note
(dp2587
g10
I65
sbtp2588
sbF0.25
tp2589
a(F0.75
(imusical.theory.chord
Chord
(dp2590
g8
((imusical.theory.note
Note
(dp2591
g10
I70
sbtp2592
sbF0.25
tp2593
a(F1
(imusical.theory.chord
Chord
(dp2594
g8
((imusical.theory.note
Note
(dp2595
g10
I63
sbtp2596
sbF0.25
tp2597
a(F1.25
(imusical.theory.chord
Chord
(dp2598
g8
((imusical.theory.note
Note
(dp2599
g10
I68
sbtp2600
sbF0.25
tp2601
a(F1.5
(imusical.theory.chord
Chord
(dp2602
g8
((imusical.theory.note
Note
(dp2603
g10
I66
sbtp2604
sbF0.25
tp2605
a(F1.75
(imusical.theory.chord
Chord
(dp2606
g8
((imusical.theory.note
Note
(dp2607
g10
I74
sbtp2608
sbF0.25
tp2609
a(F2
(imusical.theory.chord
Chord
(dp2610
g8
((imusical.theory.note
Note
(dp2611
g10
I44
sbtp2612
sbF0.25
tp2613
a(F2.25
(imusical.theory.chord
Chord
(dp2614
g8
((imusical.theory.note
Note
(dp2615
g10
I72
sbtp2616
sbF0.25
tp2617
a(F2.5
(imusical.theory.chord
Chord
(dp2618
g8
((imusical.theory.note
Note
(dp2619
g10
I78
sbtp2620
sbF0.25
tp2621
a(F2.75
(imusical.theory.chord
Chord
(dp2622
g8
((imusical.theory.note
Note
(dp2623
g10
I74
sbtp2624
sbF0.25
tp2625
a(F3
(imusical.theory.chord
Chord
(dp2626
g8
((imusical.theory.note
Note
(dp2627
g10
I56
sbtp2628
sbF0.25
tp2629
a(F3.25
(imusical.theory.chord
Chord
(dp2630
g8
((imusical.theory.note
Note
(dp2631
g10
I81
sbtp2632
sbF0.25
tp2633
a(F3.5
(imusical.theory.chord
Chord
(dp2634
g8
((imusical.theory.note
Note
(dp2635
g10
I82
sbtp2636
sbF0.25
tp2637
a(F3.75
(imusical.theory.chord
Chord
(dp2638
g8
((imusical.theory.note
Note
(dp2639
g10
I77
sbtp2640
sbF0.25
tp2641
asg97
g98
(g100
S'u,\x86H'
tRp2642
sg102
g103
sg104
S'song-3V5-14.wav'
p2643
sg106
F197.36174702644348
sg107
(lp2644
(F0
(imusical.theory.chord
Chord
(dp2645
g8
((imusical.theory.note
Note
(dp2646
g10
I44
sb(imusical.theory.note
Note
(dp2647
g10
I48
sb(imusical.theory.note
Note
(dp2648
g10
I51
sbtp2649
sbF1
tp2650
a(F1
(imusical.theory.chord
Chord
(dp2651
g8
((imusical.theory.note
Note
(dp2652
g10
I51
sb(imusical.theory.note
Note
(dp2653
g10
I55
sb(imusical.theory.note
Note
(dp2654
g10
I58
sbtp2655
sbF1
tp2656
a(F2
(imusical.theory.chord
Chord
(dp2657
g8
((imusical.theory.note
Note
(dp2658
g10
I53
sb(imusical.theory.note
Note
(dp2659
g10
I56
sb(imusical.theory.note
Note
(dp2660
g10
I60
sbtp2661
sbF1
tp2662
a(F3
(imusical.theory.chord
Chord
(dp2663
g8
((imusical.theory.note
Note
(dp2664
g10
I49
sb(imusical.theory.note
Note
(dp2665
g10
I53
sb(imusical.theory.note
Note
(dp2666
g10
I56
sbtp2667
sbF1
tp2668
a(F0
(imusical.theory.chord
Chord
(dp2669
g8
((imusical.theory.note
Note
(dp2670
g10
I56
sbtp2671
sbF0.25
tp2672
a(F0.25
(imusical.theory.chord
Chord
(dp2673
g8
((imusical.theory.note
Note
(dp2674
g10
I63
sbtp2675
sbF0.25
tp2676
a(F0.5
(imusical.theory.chord
Chord
(dp2677
g8
((imusical.theory.note
Note
(dp2678
g10
I65
sbtp2679
sbF0.25
tp2680
a(F0.75
(imusical.theory.chord
Chord
(dp2681
g8
((imusical.theory.note
Note
(dp2682
g10
I67
sbtp2683
sbF0.25
tp2684
a(F1
(imusical.theory.chord
Chord
(dp2685
g8
((imusical.theory.note
Note
(dp2686
g10
I67
sbtp2687
sbF0.25
tp2688
a(F1.25
(imusical.theory.chord
Chord
(dp2689
g8
((imusical.theory.note
Note
(dp2690
g10
I68
sbtp2691
sbF0.25
tp2692
a(F1.5
(imusical.theory.chord
Chord
(dp2693
g8
((imusical.theory.note
Note
(dp2694
g10
I68
sbtp2695
sbF0.25
tp2696
a(F1.75
(imusical.theory.chord
Chord
(dp2697
g8
((imusical.theory.note
Note
(dp2698
g10
I80
sbtp2699
sbF0.25
tp2700
a(F2
(imusical.theory.chord
Chord
(dp2701
g8
((imusical.theory.note
Note
(dp2702
g10
I77
sbtp2703
sbF0.25
tp2704
a(F2.25
(imusical.theory.chord
Chord
(dp2705
g8
((imusical.theory.note
Note
(dp2706
g10
I80
sbtp2707
sbF0.25
tp2708
a(F2.5
(imusical.theory.chord
Chord
(dp2709
g8
((imusical.theory.note
Note
(dp2710
g10
I82
sbtp2711
sbF0.25
tp2712
a(F2.75
(imusical.theory.chord
Chord
(dp2713
g8
((imusical.theory.note
Note
(dp2714
g10
I84
sbtp2715
sbF0.25
tp2716
a(F3
(imusical.theory.chord
Chord
(dp2717
g8
((imusical.theory.note
Note
(dp2718
g10
I91
sbtp2719
sbF0.25
tp2720
a(F3.25
(imusical.theory.chord
Chord
(dp2721
g8
((imusical.theory.note
Note
(dp2722
g10
I91
sbtp2723
sbF0.25
tp2724
a(F3.5
(imusical.theory.chord
Chord
(dp2725
g8
((imusical.theory.note
Note
(dp2726
g10
I92
sbtp2727
sbF0.25
tp2728
a(F3.75
(imusical.theory.chord
Chord
(dp2729
g8
((imusical.theory.note
Note
(dp2730
g10
I91
sbtp2731
sbF0.25
tp2732
asg197
I800
sg198
F28.272888957444728
sa(dp2733
g3
g4
sg5
(lp2734
(F0
(imusical.theory.chord
Chord
(dp2735
g8
((imusical.theory.note
Note
(dp2736
g10
I43
sb(imusical.theory.note
Note
(dp2737
g10
I47
sb(imusical.theory.note
Note
(dp2738
g10
I50
sbtp2739
sbF1
tp2740
a(F1
(imusical.theory.chord
Chord
(dp2741
g8
((imusical.theory.note
Note
(dp2742
g10
I54
sb(imusical.theory.note
Note
(dp2743
g10
I57
sb(imusical.theory.note
Note
(dp2744
g10
I61
sbtp2745
sbF1
tp2746
a(F2
(imusical.theory.chord
Chord
(dp2747
g8
((imusical.theory.note
Note
(dp2748
g10
I52
sb(imusical.theory.note
Note
(dp2749
g10
I55
sb(imusical.theory.note
Note
(dp2750
g10
I59
sbtp2751
sbF1
tp2752
a(F3
(imusical.theory.chord
Chord
(dp2753
g8
((imusical.theory.note
Note
(dp2754
g10
I48
sb(imusical.theory.note
Note
(dp2755
g10
I52
sb(imusical.theory.note
Note
(dp2756
g10
I55
sbtp2757
sbF1
tp2758
a(F0
(imusical.theory.chord
Chord
(dp2759
g8
((imusical.theory.note
Note
(dp2760
g10
I48
sbtp2761
sbF0.25
tp2762
a(F0.25
(imusical.theory.chord
Chord
(dp2763
g8
((imusical.theory.note
Note
(dp2764
g10
I50
sbtp2765
sbF0.25
tp2766
a(F0.5
(imusical.theory.chord
Chord
(dp2767
g8
((imusical.theory.note
Note
(dp2768
g10
I48
sbtp2769
sbF0.25
tp2770
a(F0.75
(imusical.theory.chord
Chord
(dp2771
g8
((imusical.theory.note
Note
(dp2772
g10
I62
sbtp2773
sbF0.25
tp2774
a(F1
(imusical.theory.chord
Chord
(dp2775
g8
((imusical.theory.note
Note
(dp2776
g10
I50
sbtp2777
sbF0.25
tp2778
a(F1.25
(imusical.theory.chord
Chord
(dp2779
g8
((imusical.theory.note
Note
(dp2780
g10
I60
sbtp2781
sbF0.25
tp2782
a(F1.5
(imusical.theory.chord
Chord
(dp2783
g8
((imusical.theory.note
Note
(dp2784
g10
I62
sbtp2785
sbF0.25
tp2786
a(F1.75
(imusical.theory.chord
Chord
(dp2787
g8
((imusical.theory.note
Note
(dp2788
g10
I59
sbtp2789
sbF0.25
tp2790
a(F2
(imusical.theory.chord
Chord
(dp2791
g8
((imusical.theory.note
Note
(dp2792
g10
I52
sbtp2793
sbF0.25
tp2794
a(F2.25
(imusical.theory.chord
Chord
(dp2795
g8
((imusical.theory.note
Note
(dp2796
g10
I67
sbtp2797
sbF0.25
tp2798
a(F2.5
(imusical.theory.chord
Chord
(dp2799
g8
((imusical.theory.note
Note
(dp2800
g10
I62
sbtp2801
sbF0.25
tp2802
a(F2.75
(imusical.theory.chord
Chord
(dp2803
g8
((imusical.theory.note
Note
(dp2804
g10
I67
sbtp2805
sbF0.25
tp2806
a(F3
(imusical.theory.chord
Chord
(dp2807
g8
((imusical.theory.note
Note
(dp2808
g10
I60
sbtp2809
sbF0.25
tp2810
a(F3.25
(imusical.theory.chord
Chord
(dp2811
g8
((imusical.theory.note
Note
(dp2812
g10
I74
sbtp2813
sbF0.25
tp2814
a(F3.5
(imusical.theory.chord
Chord
(dp2815
g8
((imusical.theory.note
Note
(dp2816
g10
I67
sbtp2817
sbF0.25
tp2818
a(F3.75
(imusical.theory.chord
Chord
(dp2819
g8
((imusical.theory.note
Note
(dp2820
g10
I62
sbtp2821
sbF0.25
tp2822
asg97
g98
(g100
S'B\xf3\x9eG'
tRp2823
sg102
g103
sg104
S'song-3V5-15.wav'
p2824
sg106
F164.28971815109253
sg107
(lp2825
(F0
(imusical.theory.chord
Chord
(dp2826
g8
((imusical.theory.note
Note
(dp2827
g10
I43
sb(imusical.theory.note
Note
(dp2828
g10
I47
sb(imusical.theory.note
Note
(dp2829
g10
I50
sbtp2830
sbF1
tp2831
a(F1
(imusical.theory.chord
Chord
(dp2832
g8
((imusical.theory.note
Note
(dp2833
g10
I50
sb(imusical.theory.note
Note
(dp2834
g10
I54
sb(imusical.theory.note
Note
(dp2835
g10
I57
sbtp2836
sbF1
tp2837
a(F2
(imusical.theory.chord
Chord
(dp2838
g8
((imusical.theory.note
Note
(dp2839
g10
I52
sb(imusical.theory.note
Note
(dp2840
g10
I55
sb(imusical.theory.note
Note
(dp2841
g10
I59
sbtp2842
sbF1
tp2843
a(F3
(imusical.theory.chord
Chord
(dp2844
g8
((imusical.theory.note
Note
(dp2845
g10
I48
sb(imusical.theory.note
Note
(dp2846
g10
I52
sb(imusical.theory.note
Note
(dp2847
g10
I55
sbtp2848
sbF1
tp2849
a(F0
(imusical.theory.chord
Chord
(dp2850
g8
((imusical.theory.note
Note
(dp2851
g10
I48
sbtp2852
sbF0.25
tp2853
a(F0.25
(imusical.theory.chord
Chord
(dp2854
g8
((imusical.theory.note
Note
(dp2855
g10
I50
sbtp2856
sbF0.25
tp2857
a(F0.5
(imusical.theory.chord
Chord
(dp2858
g8
((imusical.theory.note
Note
(dp2859
g10
I48
sbtp2860
sbF0.25
tp2861
a(F0.75
(imusical.theory.chord
Chord
(dp2862
g8
((imusical.theory.note
Note
(dp2863
g10
I55
sbtp2864
sbF0.25
tp2865
a(F1
(imusical.theory.chord
Chord
(dp2866
g8
((imusical.theory.note
Note
(dp2867
g10
I60
sbtp2868
sbF0.25
tp2869
a(F1.25
(imusical.theory.chord
Chord
(dp2870
g8
((imusical.theory.note
Note
(dp2871
g10
I60
sbtp2872
sbF0.25
tp2873
a(F1.5
(imusical.theory.chord
Chord
(dp2874
g8
((imusical.theory.note
Note
(dp2875
g10
I62
sbtp2876
sbF0.25
tp2877
a(F1.75
(imusical.theory.chord
Chord
(dp2878
g8
((imusical.theory.note
Note
(dp2879
g10
I59
sbtp2880
sbF0.25
tp2881
a(F2
(imusical.theory.chord
Chord
(dp2882
g8
((imusical.theory.note
Note
(dp2883
g10
I59
sbtp2884
sbF0.25
tp2885
a(F2.25
(imusical.theory.chord
Chord
(dp2886
g8
((imusical.theory.note
Note
(dp2887
g10
I60
sbtp2888
sbF0.25
tp2889
a(F2.5
(imusical.theory.chord
Chord
(dp2890
g8
((imusical.theory.note
Note
(dp2891
g10
I62
sbtp2892
sbF0.25
tp2893
a(F2.75
(imusical.theory.chord
Chord
(dp2894
g8
((imusical.theory.note
Note
(dp2895
g10
I67
sbtp2896
sbF0.25
tp2897
a(F3
(imusical.theory.chord
Chord
(dp2898
g8
((imusical.theory.note
Note
(dp2899
g10
I67
sbtp2900
sbF0.25
tp2901
a(F3.25
(imusical.theory.chord
Chord
(dp2902
g8
((imusical.theory.note
Note
(dp2903
g10
I66
sbtp2904
sbF0.25
tp2905
a(F3.5
(imusical.theory.chord
Chord
(dp2906
g8
((imusical.theory.note
Note
(dp2907
g10
I60
sbtp2908
sbF0.25
tp2909
a(F3.75
(imusical.theory.chord
Chord
(dp2910
g8
((imusical.theory.note
Note
(dp2911
g10
I55
sbtp2912
sbF0.25
tp2913
asg197
I800
sg198
F12.667132666866642
sa(dp2914
g3
g4
sg5
(lp2915
(F0
(imusical.theory.chord
Chord
(dp2916
g8
((imusical.theory.note
Note
(dp2917
g10
I36
sb(imusical.theory.note
Note
(dp2918
g10
I40
sb(imusical.theory.note
Note
(dp2919
g10
I43
sbtp2920
sbF1
tp2921
a(F1
(imusical.theory.chord
Chord
(dp2922
g8
((imusical.theory.note
Note
(dp2923
g10
I43
sb(imusical.theory.note
Note
(dp2924
g10
I47
sb(imusical.theory.note
Note
(dp2925
g10
I50
sbtp2926
sbF1
tp2927
a(F2
(imusical.theory.chord
Chord
(dp2928
g8
((imusical.theory.note
Note
(dp2929
g10
I38
sb(imusical.theory.note
Note
(dp2930
g10
I42
sb(imusical.theory.note
Note
(dp2931
g10
I45
sbtp2932
sbF1
tp2933
a(F3
(imusical.theory.chord
Chord
(dp2934
g8
((imusical.theory.note
Note
(dp2935
g10
I38
sb(imusical.theory.note
Note
(dp2936
g10
I41
sb(imusical.theory.note
Note
(dp2937
g10
I45
sbtp2938
sbF1
tp2939
a(F0
(imusical.theory.chord
Chord
(dp2940
g8
((imusical.theory.note
Note
(dp2941
g10
I60
sbtp2942
sbF0.25
tp2943
a(F0.25
(imusical.theory.chord
Chord
(dp2944
g8
((imusical.theory.note
Note
(dp2945
g10
I55
sbtp2946
sbF0.25
tp2947
a(F0.5
(imusical.theory.chord
Chord
(dp2948
g8
((imusical.theory.note
Note
(dp2949
g10
I53
sbtp2950
sbF0.25
tp2951
a(F0.75
(imusical.theory.chord
Chord
(dp2952
g8
((imusical.theory.note
Note
(dp2953
g10
I50
sbtp2954
sbF0.25
tp2955
a(F1
(imusical.theory.chord
Chord
(dp2956
g8
((imusical.theory.note
Note
(dp2957
g10
I43
sbtp2958
sbF0.25
tp2959
a(F1.25
(imusical.theory.chord
Chord
(dp2960
g8
((imusical.theory.note
Note
(dp2961
g10
I47
sbtp2962
sbF0.25
tp2963
a(F1.5
(imusical.theory.chord
Chord
(dp2964
g8
((imusical.theory.note
Note
(dp2965
g10
I43
sbtp2966
sbF0.25
tp2967
a(F1.75
(imusical.theory.chord
Chord
(dp2968
g8
((imusical.theory.note
Note
(dp2969
g10
I40
sbtp2970
sbF0.25
tp2971
a(F2
(imusical.theory.chord
Chord
(dp2972
g8
((imusical.theory.note
Note
(dp2973
g10
I67
sbtp2974
sbF0.25
tp2975
a(F2.25
(imusical.theory.chord
Chord
(dp2976
g8
((imusical.theory.note
Note
(dp2977
g10
I35
sbtp2978
sbF0.25
tp2979
a(F2.5
(imusical.theory.chord
Chord
(dp2980
g8
((imusical.theory.note
Note
(dp2981
g10
I35
sbtp2982
sbF0.25
tp2983
a(F2.75
(imusical.theory.chord
Chord
(dp2984
g8
((imusical.theory.note
Note
(dp2985
g10
I36
sbtp2986
sbF0.25
tp2987
a(F3
(imusical.theory.chord
Chord
(dp2988
g8
((imusical.theory.note
Note
(dp2989
g10
I48
sbtp2990
sbF0.25
tp2991
a(F3.25
(imusical.theory.chord
Chord
(dp2992
g8
((imusical.theory.note
Note
(dp2993
g10
I40
sbtp2994
sbF0.25
tp2995
a(F3.5
(imusical.theory.chord
Chord
(dp2996
g8
((imusical.theory.note
Note
(dp2997
g10
I43
sbtp2998
sbF0.25
tp2999
a(F3.75
(imusical.theory.chord
Chord
(dp3000
g8
((imusical.theory.note
Note
(dp3001
g10
I40
sbtp3002
sbF0.25
tp3003
asg97
g98
(g100
S'\xea+\xa6F'
tRp3004
sg102
g103
sg104
S'song-3V5-16.wav'
p3005
sg106
F188.21979594230652
sg107
(lp3006
(F0
(imusical.theory.chord
Chord
(dp3007
g8
((imusical.theory.note
Note
(dp3008
g10
I36
sb(imusical.theory.note
Note
(dp3009
g10
I40
sb(imusical.theory.note
Note
(dp3010
g10
I43
sbtp3011
sbF1
tp3012
a(F1
(imusical.theory.chord
Chord
(dp3013
g8
((imusical.theory.note
Note
(dp3014
g10
I43
sb(imusical.theory.note
Note
(dp3015
g10
I47
sb(imusical.theory.note
Note
(dp3016
g10
I50
sbtp3017
sbF1
tp3018
a(F2
(imusical.theory.chord
Chord
(dp3019
g8
((imusical.theory.note
Note
(dp3020
g10
I45
sb(imusical.theory.note
Note
(dp3021
g10
I48
sb(imusical.theory.note
Note
(dp3022
g10
I52
sbtp3023
sbF1
tp3024
a(F3
(imusical.theory.chord
Chord
(dp3025
g8
((imusical.theory.note
Note
(dp3026
g10
I41
sb(imusical.theory.note
Note
(dp3027
g10
I45
sb(imusical.theory.note
Note
(dp3028
g10
I48
sbtp3029
sbF1
tp3030
a(F0
(imusical.theory.chord
Chord
(dp3031
g8
((imusical.theory.note
Note
(dp3032
g10
I53
sbtp3033
sbF0.25
tp3034
a(F0.25
(imusical.theory.chord
Chord
(dp3035
g8
((imusical.theory.note
Note
(dp3036
g10
I55
sbtp3037
sbF0.25
tp3038
a(F0.5
(imusical.theory.chord
Chord
(dp3039
g8
((imusical.theory.note
Note
(dp3040
g10
I53
sbtp3041
sbF0.25
tp3042
a(F0.75
(imusical.theory.chord
Chord
(dp3043
g8
((imusical.theory.note
Note
(dp3044
g10
I50
sbtp3045
sbF0.25
tp3046
a(F1
(imusical.theory.chord
Chord
(dp3047
g8
((imusical.theory.note
Note
(dp3048
g10
I55
sbtp3049
sbF0.25
tp3050
a(F1.25
(imusical.theory.chord
Chord
(dp3051
g8
((imusical.theory.note
Note
(dp3052
g10
I47
sbtp3053
sbF0.25
tp3054
a(F1.5
(imusical.theory.chord
Chord
(dp3055
g8
((imusical.theory.note
Note
(dp3056
g10
I43
sbtp3057
sbF0.25
tp3058
a(F1.75
(imusical.theory.chord
Chord
(dp3059
g8
((imusical.theory.note
Note
(dp3060
g10
I40
sbtp3061
sbF0.25
tp3062
a(F2
(imusical.theory.chord
Chord
(dp3063
g8
((imusical.theory.note
Note
(dp3064
g10
I38
sbtp3065
sbF0.25
tp3066
a(F2.25
(imusical.theory.chord
Chord
(dp3067
g8
((imusical.theory.note
Note
(dp3068
g10
I35
sbtp3069
sbF0.25
tp3070
a(F2.5
(imusical.theory.chord
Chord
(dp3071
g8
((imusical.theory.note
Note
(dp3072
g10
I35
sbtp3073
sbF0.25
tp3074
a(F2.75
(imusical.theory.chord
Chord
(dp3075
g8
((imusical.theory.note
Note
(dp3076
g10
I36
sbtp3077
sbF0.25
tp3078
a(F3
(imusical.theory.chord
Chord
(dp3079
g8
((imusical.theory.note
Note
(dp3080
g10
I38
sbtp3081
sbF0.25
tp3082
a(F3.25
(imusical.theory.chord
Chord
(dp3083
g8
((imusical.theory.note
Note
(dp3084
g10
I40
sbtp3085
sbF0.25
tp3086
a(F3.5
(imusical.theory.chord
Chord
(dp3087
g8
((imusical.theory.note
Note
(dp3088
g10
I43
sbtp3089
sbF0.25
tp3090
a(F3.75
(imusical.theory.chord
Chord
(dp3091
g8
((imusical.theory.note
Note
(dp3092
g10
I40
sbtp3093
sbF0.25
tp3094
asg197
I800
sg198
F16.731893198320385
sa(dp3095
g3
g4
sg5
(lp3096
(F0
(imusical.theory.chord
Chord
(dp3097
g8
((imusical.theory.note
Note
(dp3098
g10
I42
sb(imusical.theory.note
Note
(dp3099
g10
I46
sb(imusical.theory.note
Note
(dp3100
g10
I49
sbtp3101
sbF1
tp3102
a(F1
(imusical.theory.chord
Chord
(dp3103
g8
((imusical.theory.note
Note
(dp3104
g10
I41
sb(imusical.theory.note
Note
(dp3105
g10
I44
sb(imusical.theory.note
Note
(dp3106
g10
I48
sbtp3107
sbF1
tp3108
a(F2
(imusical.theory.chord
Chord
(dp3109
g8
((imusical.theory.note
Note
(dp3110
g10
I39
sb(imusical.theory.note
Note
(dp3111
g10
I42
sb(imusical.theory.note
Note
(dp3112
g10
I46
sbtp3113
sbF1
tp3114
a(F3
(imusical.theory.chord
Chord
(dp3115
g8
((imusical.theory.note
Note
(dp3116
g10
I29
sb(imusical.theory.note
Note
(dp3117
g10
I33
sb(imusical.theory.note
Note
(dp3118
g10
I36
sbtp3119
sbF1
tp3120
a(F0
(imusical.theory.chord
Chord
(dp3121
g8
((imusical.theory.note
Note
(dp3122
g10
I49
sbtp3123
sbF0.25
tp3124
a(F0.25
(imusical.theory.chord
Chord
(dp3125
g8
((imusical.theory.note
Note
(dp3126
g10
I51
sbtp3127
sbF0.25
tp3128
a(F0.5
(imusical.theory.chord
Chord
(dp3129
g8
((imusical.theory.note
Note
(dp3130
g10
I46
sbtp3131
sbF0.25
tp3132
a(F0.75
(imusical.theory.chord
Chord
(dp3133
g8
((imusical.theory.note
Note
(dp3134
g10
I49
sbtp3135
sbF0.25
tp3136
a(F1
(imusical.theory.chord
Chord
(dp3137
g8
((imusical.theory.note
Note
(dp3138
g10
I53
sbtp3139
sbF0.25
tp3140
a(F1.25
(imusical.theory.chord
Chord
(dp3141
g8
((imusical.theory.note
Note
(dp3142
g10
I46
sbtp3143
sbF0.25
tp3144
a(F1.5
(imusical.theory.chord
Chord
(dp3145
g8
((imusical.theory.note
Note
(dp3146
g10
I44
sbtp3147
sbF0.25
tp3148
a(F1.75
(imusical.theory.chord
Chord
(dp3149
g8
((imusical.theory.note
Note
(dp3150
g10
I37
sbtp3151
sbF0.25
tp3152
a(F2
(imusical.theory.chord
Chord
(dp3153
g8
((imusical.theory.note
Note
(dp3154
g10
I51
sbtp3155
sbF0.25
tp3156
a(F2.25
(imusical.theory.chord
Chord
(dp3157
g8
((imusical.theory.note
Note
(dp3158
g10
I39
sbtp3159
sbF0.25
tp3160
a(F2.5
(imusical.theory.chord
Chord
(dp3161
g8
((imusical.theory.note
Note
(dp3162
g10
I34
sbtp3163
sbF0.25
tp3164
a(F2.75
(imusical.theory.chord
Chord
(dp3165
g8
((imusical.theory.note
Note
(dp3166
g10
I30
sbtp3167
sbF0.25
tp3168
a(F3
(imusical.theory.chord
Chord
(dp3169
g8
((imusical.theory.note
Note
(dp3170
g10
I47
sbtp3171
sbF0.25
tp3172
a(F3.25
(imusical.theory.chord
Chord
(dp3173
g8
((imusical.theory.note
Note
(dp3174
g10
I29
sbtp3175
sbF0.25
tp3176
a(F3.5
(imusical.theory.chord
Chord
(dp3177
g8
((imusical.theory.note
Note
(dp3178
g10
I29
sbtp3179
sbF0.25
tp3180
a(F3.75
(imusical.theory.chord
Chord
(dp3181
g8
((imusical.theory.note
Note
(dp3182
g10
I30
sbtp3183
sbF0.25
tp3184
asg97
g98
(g100
S'\xbe\xb8\x83G'
tRp3185
sg102
g103
sg104
S'song-3V5-17.wav'
p3186
sg106
F191.4632260799408
sg107
(lp3187
(F0
(imusical.theory.chord
Chord
(dp3188
g8
((imusical.theory.note
Note
(dp3189
g10
I42
sb(imusical.theory.note
Note
(dp3190
g10
I46
sb(imusical.theory.note
Note
(dp3191
g10
I49
sbtp3192
sbF1
tp3193
a(F1
(imusical.theory.chord
Chord
(dp3194
g8
((imusical.theory.note
Note
(dp3195
g10
I49
sb(imusical.theory.note
Note
(dp3196
g10
I53
sb(imusical.theory.note
Note
(dp3197
g10
I56
sbtp3198
sbF1
tp3199
a(F2
(imusical.theory.chord
Chord
(dp3200
g8
((imusical.theory.note
Note
(dp3201
g10
I51
sb(imusical.theory.note
Note
(dp3202
g10
I54
sb(imusical.theory.note
Note
(dp3203
g10
I58
sbtp3204
sbF1
tp3205
a(F3
(imusical.theory.chord
Chord
(dp3206
g8
((imusical.theory.note
Note
(dp3207
g10
I47
sb(imusical.theory.note
Note
(dp3208
g10
I51
sb(imusical.theory.note
Note
(dp3209
g10
I54
sbtp3210
sbF1
tp3211
a(F0
(imusical.theory.chord
Chord
(dp3212
g8
((imusical.theory.note
Note
(dp3213
g10
I49
sbtp3214
sbF0.25
tp3215
a(F0.25
(imusical.theory.chord
Chord
(dp3216
g8
((imusical.theory.note
Note
(dp3217
g10
I51
sbtp3218
sbF0.25
tp3219
a(F0.5
(imusical.theory.chord
Chord
(dp3220
g8
((imusical.theory.note
Note
(dp3221
g10
I46
sbtp3222
sbF0.25
tp3223
a(F0.75
(imusical.theory.chord
Chord
(dp3224
g8
((imusical.theory.note
Note
(dp3225
g10
I49
sbtp3226
sbF0.25
tp3227
a(F1
(imusical.theory.chord
Chord
(dp3228
g8
((imusical.theory.note
Note
(dp3229
g10
I44
sbtp3230
sbF0.25
tp3231
a(F1.25
(imusical.theory.chord
Chord
(dp3232
g8
((imusical.theory.note
Note
(dp3233
g10
I46
sbtp3234
sbF0.25
tp3235
a(F1.5
(imusical.theory.chord
Chord
(dp3236
g8
((imusical.theory.note
Note
(dp3237
g10
I44
sbtp3238
sbF0.25
tp3239
a(F1.75
(imusical.theory.chord
Chord
(dp3240
g8
((imusical.theory.note
Note
(dp3241
g10
I37
sbtp3242
sbF0.25
tp3243
a(F2
(imusical.theory.chord
Chord
(dp3244
g8
((imusical.theory.note
Note
(dp3245
g10
I35
sbtp3246
sbF0.25
tp3247
a(F2.25
(imusical.theory.chord
Chord
(dp3248
g8
((imusical.theory.note
Note
(dp3249
g10
I39
sbtp3250
sbF0.25
tp3251
a(F2.5
(imusical.theory.chord
Chord
(dp3252
g8
((imusical.theory.note
Note
(dp3253
g10
I34
sbtp3254
sbF0.25
tp3255
a(F2.75
(imusical.theory.chord
Chord
(dp3256
g8
((imusical.theory.note
Note
(dp3257
g10
I29
sbtp3258
sbF0.25
tp3259
a(F3
(imusical.theory.chord
Chord
(dp3260
g8
((imusical.theory.note
Note
(dp3261
g10
I29
sbtp3262
sbF0.25
tp3263
a(F3.25
(imusical.theory.chord
Chord
(dp3264
g8
((imusical.theory.note
Note
(dp3265
g10
I29
sbtp3266
sbF0.25
tp3267
a(F3.5
(imusical.theory.chord
Chord
(dp3268
g8
((imusical.theory.note
Note
(dp3269
g10
I29
sbtp3270
sbF0.25
tp3271
a(F3.75
(imusical.theory.chord
Chord
(dp3272
g8
((imusical.theory.note
Note
(dp3273
g10
I30
sbtp3274
sbF0.25
tp3275
asg197
I800
sg198
F18.214177170544929
sa(dp3276
g3
g4
sg5
(lp3277
(F0
(imusical.theory.chord
Chord
(dp3278
g8
((imusical.theory.note
Note
(dp3279
g10
I40
sb(imusical.theory.note
Note
(dp3280
g10
I44
sb(imusical.theory.note
Note
(dp3281
g10
I47
sbtp3282
sbF1
tp3283
a(F1
(imusical.theory.chord
Chord
(dp3284
g8
((imusical.theory.note
Note
(dp3285
g10
I47
sb(imusical.theory.note
Note
(dp3286
g10
I51
sb(imusical.theory.note
Note
(dp3287
g10
I54
sbtp3288
sbF1
tp3289
a(F2
(imusical.theory.chord
Chord
(dp3290
g8
((imusical.theory.note
Note
(dp3291
g10
I49
sb(imusical.theory.note
Note
(dp3292
g10
I52
sb(imusical.theory.note
Note
(dp3293
g10
I56
sbtp3294
sbF1
tp3295
a(F3
(imusical.theory.chord
Chord
(dp3296
g8
((imusical.theory.note
Note
(dp3297
g10
I45
sb(imusical.theory.note
Note
(dp3298
g10
I49
sb(imusical.theory.note
Note
(dp3299
g10
I52
sbtp3300
sbF1
tp3301
a(F0
(imusical.theory.chord
Chord
(dp3302
g8
((imusical.theory.note
Note
(dp3303
g10
I56
sbtp3304
sbF0.25
tp3305
a(F0.25
(imusical.theory.chord
Chord
(dp3306
g8
((imusical.theory.note
Note
(dp3307
g10
I63
sbtp3308
sbF0.25
tp3309
a(F0.5
(imusical.theory.chord
Chord
(dp3310
g8
((imusical.theory.note
Note
(dp3311
g10
I57
sbtp3312
sbF0.25
tp3313
a(F0.75
(imusical.theory.chord
Chord
(dp3314
g8
((imusical.theory.note
Note
(dp3315
g10
I52
sbtp3316
sbF0.25
tp3317
a(F1
(imusical.theory.chord
Chord
(dp3318
g8
((imusical.theory.note
Note
(dp3319
g10
I54
sbtp3320
sbF0.25
tp3321
a(F1.25
(imusical.theory.chord
Chord
(dp3322
g8
((imusical.theory.note
Note
(dp3323
g10
I66
sbtp3324
sbF0.25
tp3325
a(F1.5
(imusical.theory.chord
Chord
(dp3326
g8
((imusical.theory.note
Note
(dp3327
g10
I52
sbtp3328
sbF0.25
tp3329
a(F1.75
(imusical.theory.chord
Chord
(dp3330
g8
((imusical.theory.note
Note
(dp3331
g10
I68
sbtp3332
sbF0.25
tp3333
a(F2
(imusical.theory.chord
Chord
(dp3334
g8
((imusical.theory.note
Note
(dp3335
g10
I73
sbtp3336
sbF0.25
tp3337
a(F2.25
(imusical.theory.chord
Chord
(dp3338
g8
((imusical.theory.note
Note
(dp3339
g10
I57
sbtp3340
sbF0.25
tp3341
a(F2.5
(imusical.theory.chord
Chord
(dp3342
g8
((imusical.theory.note
Note
(dp3343
g10
I61
sbtp3344
sbF0.25
tp3345
a(F2.75
(imusical.theory.chord
Chord
(dp3346
g8
((imusical.theory.note
Note
(dp3347
g10
I59
sbtp3348
sbF0.25
tp3349
a(F3
(imusical.theory.chord
Chord
(dp3350
g8
((imusical.theory.note
Note
(dp3351
g10
I49
sbtp3352
sbF0.25
tp3353
a(F3.25
(imusical.theory.chord
Chord
(dp3354
g8
((imusical.theory.note
Note
(dp3355
g10
I56
sbtp3356
sbF0.25
tp3357
a(F3.5
(imusical.theory.chord
Chord
(dp3358
g8
((imusical.theory.note
Note
(dp3359
g10
I56
sbtp3360
sbF0.25
tp3361
a(F3.75
(imusical.theory.chord
Chord
(dp3362
g8
((imusical.theory.note
Note
(dp3363
g10
I51
sbtp3364
sbF0.25
tp3365
asg97
g98
(g100
S'\x03s\x01G'
tRp3366
sg102
g103
sg104
S'song-3V5-18.wav'
p3367
sg106
F195.58923482894897
sg107
(lp3368
(F0
(imusical.theory.chord
Chord
(dp3369
g8
((imusical.theory.note
Note
(dp3370
g10
I40
sb(imusical.theory.note
Note
(dp3371
g10
I44
sb(imusical.theory.note
Note
(dp3372
g10
I47
sbtp3373
sbF1
tp3374
a(F1
(imusical.theory.chord
Chord
(dp3375
g8
((imusical.theory.note
Note
(dp3376
g10
I47
sb(imusical.theory.note
Note
(dp3377
g10
I51
sb(imusical.theory.note
Note
(dp3378
g10
I54
sbtp3379
sbF1
tp3380
a(F2
(imusical.theory.chord
Chord
(dp3381
g8
((imusical.theory.note
Note
(dp3382
g10
I49
sb(imusical.theory.note
Note
(dp3383
g10
I52
sb(imusical.theory.note
Note
(dp3384
g10
I56
sbtp3385
sbF1
tp3386
a(F3
(imusical.theory.chord
Chord
(dp3387
g8
((imusical.theory.note
Note
(dp3388
g10
I45
sb(imusical.theory.note
Note
(dp3389
g10
I49
sb(imusical.theory.note
Note
(dp3390
g10
I52
sbtp3391
sbF1
tp3392
a(F0
(imusical.theory.chord
Chord
(dp3393
g8
((imusical.theory.note
Note
(dp3394
g10
I56
sbtp3395
sbF0.25
tp3396
a(F0.25
(imusical.theory.chord
Chord
(dp3397
g8
((imusical.theory.note
Note
(dp3398
g10
I63
sbtp3399
sbF0.25
tp3400
a(F0.5
(imusical.theory.chord
Chord
(dp3401
g8
((imusical.theory.note
Note
(dp3402
g10
I57
sbtp3403
sbF0.25
tp3404
a(F0.75
(imusical.theory.chord
Chord
(dp3405
g8
((imusical.theory.note
Note
(dp3406
g10
I52
sbtp3407
sbF0.25
tp3408
a(F1
(imusical.theory.chord
Chord
(dp3409
g8
((imusical.theory.note
Note
(dp3410
g10
I59
sbtp3411
sbF0.25
tp3412
a(F1.25
(imusical.theory.chord
Chord
(dp3413
g8
((imusical.theory.note
Note
(dp3414
g10
I59
sbtp3415
sbF0.25
tp3416
a(F1.5
(imusical.theory.chord
Chord
(dp3417
g8
((imusical.theory.note
Note
(dp3418
g10
I52
sbtp3419
sbF0.25
tp3420
a(F1.75
(imusical.theory.chord
Chord
(dp3421
g8
((imusical.theory.note
Note
(dp3422
g10
I56
sbtp3423
sbF0.25
tp3424
a(F2
(imusical.theory.chord
Chord
(dp3425
g8
((imusical.theory.note
Note
(dp3426
g10
I59
sbtp3427
sbF0.25
tp3428
a(F2.25
(imusical.theory.chord
Chord
(dp3429
g8
((imusical.theory.note
Note
(dp3430
g10
I57
sbtp3431
sbF0.25
tp3432
a(F2.5
(imusical.theory.chord
Chord
(dp3433
g8
((imusical.theory.note
Note
(dp3434
g10
I61
sbtp3435
sbF0.25
tp3436
a(F2.75
(imusical.theory.chord
Chord
(dp3437
g8
((imusical.theory.note
Note
(dp3438
g10
I59
sbtp3439
sbF0.25
tp3440
a(F3
(imusical.theory.chord
Chord
(dp3441
g8
((imusical.theory.note
Note
(dp3442
g10
I54
sbtp3443
sbF0.25
tp3444
a(F3.25
(imusical.theory.chord
Chord
(dp3445
g8
((imusical.theory.note
Note
(dp3446
g10
I56
sbtp3447
sbF0.25
tp3448
a(F3.5
(imusical.theory.chord
Chord
(dp3449
g8
((imusical.theory.note
Note
(dp3450
g10
I56
sbtp3451
sbF0.25
tp3452
a(F3.75
(imusical.theory.chord
Chord
(dp3453
g8
((imusical.theory.note
Note
(dp3454
g10
I51
sbtp3455
sbF0.25
tp3456
asg197
I800
sg198
F14.938415243927315
sa(dp3457
g3
g4
sg5
(lp3458
(F0
(imusical.theory.chord
Chord
(dp3459
g8
((imusical.theory.note
Note
(dp3460
g10
I39
sb(imusical.theory.note
Note
(dp3461
g10
I43
sb(imusical.theory.note
Note
(dp3462
g10
I46
sbtp3463
sbF1
tp3464
a(F1
(imusical.theory.chord
Chord
(dp3465
g8
((imusical.theory.note
Note
(dp3466
g10
I46
sb(imusical.theory.note
Note
(dp3467
g10
I50
sb(imusical.theory.note
Note
(dp3468
g10
I53
sbtp3469
sbF1
tp3470
a(F2
(imusical.theory.chord
Chord
(dp3471
g8
((imusical.theory.note
Note
(dp3472
g10
I48
sb(imusical.theory.note
Note
(dp3473
g10
I51
sb(imusical.theory.note
Note
(dp3474
g10
I55
sbtp3475
sbF1
tp3476
a(F3
(imusical.theory.chord
Chord
(dp3477
g8
((imusical.theory.note
Note
(dp3478
g10
I44
sb(imusical.theory.note
Note
(dp3479
g10
I48
sb(imusical.theory.note
Note
(dp3480
g10
I51
sbtp3481
sbF1
tp3482
a(F0
(imusical.theory.chord
Chord
(dp3483
g8
((imusical.theory.note
Note
(dp3484
g10
I58
sbtp3485
sbF0.25
tp3486
a(F0.25
(imusical.theory.chord
Chord
(dp3487
g8
((imusical.theory.note
Note
(dp3488
g10
I58
sbtp3489
sbF0.25
tp3490
a(F0.5
(imusical.theory.chord
Chord
(dp3491
g8
((imusical.theory.note
Note
(dp3492
g10
I60
sbtp3493
sbF0.25
tp3494
a(F0.75
(imusical.theory.chord
Chord
(dp3495
g8
((imusical.theory.note
Note
(dp3496
g10
I62
sbtp3497
sbF0.25
tp3498
a(F1
(imusical.theory.chord
Chord
(dp3499
g8
((imusical.theory.note
Note
(dp3500
g10
I53
sbtp3501
sbF0.25
tp3502
a(F1.25
(imusical.theory.chord
Chord
(dp3503
g8
((imusical.theory.note
Note
(dp3504
g10
I53
sbtp3505
sbF0.25
tp3506
a(F1.5
(imusical.theory.chord
Chord
(dp3507
g8
((imusical.theory.note
Note
(dp3508
g10
I62
sbtp3509
sbF0.25
tp3510
a(F1.75
(imusical.theory.chord
Chord
(dp3511
g8
((imusical.theory.note
Note
(dp3512
g10
I65
sbtp3513
sbF0.25
tp3514
a(F2
(imusical.theory.chord
Chord
(dp3515
g8
((imusical.theory.note
Note
(dp3516
g10
I60
sbtp3517
sbF0.25
tp3518
a(F2.25
(imusical.theory.chord
Chord
(dp3519
g8
((imusical.theory.note
Note
(dp3520
g10
I70
sbtp3521
sbF0.25
tp3522
a(F2.5
(imusical.theory.chord
Chord
(dp3523
g8
((imusical.theory.note
Note
(dp3524
g10
I80
sbtp3525
sbF0.25
tp3526
a(F2.75
(imusical.theory.chord
Chord
(dp3527
g8
((imusical.theory.note
Note
(dp3528
g10
I70
sbtp3529
sbF0.25
tp3530
a(F3
(imusical.theory.chord
Chord
(dp3531
g8
((imusical.theory.note
Note
(dp3532
g10
I51
sbtp3533
sbF0.25
tp3534
a(F3.25
(imusical.theory.chord
Chord
(dp3535
g8
((imusical.theory.note
Note
(dp3536
g10
I60
sbtp3537
sbF0.25
tp3538
a(F3.5
(imusical.theory.chord
Chord
(dp3539
g8
((imusical.theory.note
Note
(dp3540
g10
I67
sbtp3541
sbF0.25
tp3542
a(F3.75
(imusical.theory.chord
Chord
(dp3543
g8
((imusical.theory.note
Note
(dp3544
g10
I67
sbtp3545
sbF0.25
tp3546
asg97
g98
(g100
S'\xf1U\xdfF'
tRp3547
sg102
g103
sg104
S'song-3V5-19.wav'
p3548
sg106
F193.37988591194153
sg107
(lp3549
(F0
(imusical.theory.chord
Chord
(dp3550
g8
((imusical.theory.note
Note
(dp3551
g10
I39
sb(imusical.theory.note
Note
(dp3552
g10
I43
sb(imusical.theory.note
Note
(dp3553
g10
I46
sbtp3554
sbF1
tp3555
a(F1
(imusical.theory.chord
Chord
(dp3556
g8
((imusical.theory.note
Note
(dp3557
g10
I46
sb(imusical.theory.note
Note
(dp3558
g10
I50
sb(imusical.theory.note
Note
(dp3559
g10
I53
sbtp3560
sbF1
tp3561
a(F2
(imusical.theory.chord
Chord
(dp3562
g8
((imusical.theory.note
Note
(dp3563
g10
I48
sb(imusical.theory.note
Note
(dp3564
g10
I51
sb(imusical.theory.note
Note
(dp3565
g10
I55
sbtp3566
sbF1
tp3567
a(F3
(imusical.theory.chord
Chord
(dp3568
g8
((imusical.theory.note
Note
(dp3569
g10
I44
sb(imusical.theory.note
Note
(dp3570
g10
I48
sb(imusical.theory.note
Note
(dp3571
g10
I51
sbtp3572
sbF1
tp3573
a(F0
(imusical.theory.chord
Chord
(dp3574
g8
((imusical.theory.note
Note
(dp3575
g10
I58
sbtp3576
sbF0.25
tp3577
a(F0.25
(imusical.theory.chord
Chord
(dp3578
g8
((imusical.theory.note
Note
(dp3579
g10
I58
sbtp3580
sbF0.25
tp3581
a(F0.5
(imusical.theory.chord
Chord
(dp3582
g8
((imusical.theory.note
Note
(dp3583
g10
I60
sbtp3584
sbF0.25
tp3585
a(F0.75
(imusical.theory.chord
Chord
(dp3586
g8
((imusical.theory.note
Note
(dp3587
g10
I62
sbtp3588
sbF0.25
tp3589
a(F1
(imusical.theory.chord
Chord
(dp3590
g8
((imusical.theory.note
Note
(dp3591
g10
I62
sbtp3592
sbF0.25
tp3593
a(F1.25
(imusical.theory.chord
Chord
(dp3594
g8
((imusical.theory.note
Note
(dp3595
g10
I63
sbtp3596
sbF0.25
tp3597
a(F1.5
(imusical.theory.chord
Chord
(dp3598
g8
((imusical.theory.note
Note
(dp3599
g10
I62
sbtp3600
sbF0.25
tp3601
a(F1.75
(imusical.theory.chord
Chord
(dp3602
g8
((imusical.theory.note
Note
(dp3603
g10
I65
sbtp3604
sbF0.25
tp3605
a(F2
(imusical.theory.chord
Chord
(dp3606
g8
((imusical.theory.note
Note
(dp3607
g10
I70
sbtp3608
sbF0.25
tp3609
a(F2.25
(imusical.theory.chord
Chord
(dp3610
g8
((imusical.theory.note
Note
(dp3611
g10
I74
sbtp3612
sbF0.25
tp3613
a(F2.5
(imusical.theory.chord
Chord
(dp3614
g8
((imusical.theory.note
Note
(dp3615
g10
I74
sbtp3616
sbF0.25
tp3617
a(F2.75
(imusical.theory.chord
Chord
(dp3618
g8
((imusical.theory.note
Note
(dp3619
g10
I70
sbtp3620
sbF0.25
tp3621
a(F3
(imusical.theory.chord
Chord
(dp3622
g8
((imusical.theory.note
Note
(dp3623
g10
I70
sbtp3624
sbF0.25
tp3625
a(F3.25
(imusical.theory.chord
Chord
(dp3626
g8
((imusical.theory.note
Note
(dp3627
g10
I67
sbtp3628
sbF0.25
tp3629
a(F3.5
(imusical.theory.chord
Chord
(dp3630
g8
((imusical.theory.note
Note
(dp3631
g10
I67
sbtp3632
sbF0.25
tp3633
a(F3.75
(imusical.theory.chord
Chord
(dp3634
g8
((imusical.theory.note
Note
(dp3635
g10
I67
sbtp3636
sbF0.25
tp3637
asg197
I800
sg198
F18.489355045539043
sa(dp3638
g3
g4
sg5
(lp3639
(F0
(imusical.theory.chord
Chord
(dp3640
g8
((imusical.theory.note
Note
(dp3641
g10
I38
sb(imusical.theory.note
Note
(dp3642
g10
I42
sb(imusical.theory.note
Note
(dp3643
g10
I45
sbtp3644
sbF1
tp3645
a(F1
(imusical.theory.chord
Chord
(dp3646
g8
((imusical.theory.note
Note
(dp3647
g10
I45
sb(imusical.theory.note
Note
(dp3648
g10
I49
sb(imusical.theory.note
Note
(dp3649
g10
I52
sbtp3650
sbF1
tp3651
a(F2
(imusical.theory.chord
Chord
(dp3652
g8
((imusical.theory.note
Note
(dp3653
g10
I47
sb(imusical.theory.note
Note
(dp3654
g10
I50
sb(imusical.theory.note
Note
(dp3655
g10
I54
sbtp3656
sbF1
tp3657
a(F3
(imusical.theory.chord
Chord
(dp3658
g8
((imusical.theory.note
Note
(dp3659
g10
I38
sb(imusical.theory.note
Note
(dp3660
g10
I42
sb(imusical.theory.note
Note
(dp3661
g10
I45
sbtp3662
sbF1
tp3663
a(F0
(imusical.theory.chord
Chord
(dp3664
g8
((imusical.theory.note
Note
(dp3665
g10
I50
sbtp3666
sbF0.25
tp3667
a(F0.25
(imusical.theory.chord
Chord
(dp3668
g8
((imusical.theory.note
Note
(dp3669
g10
I60
sbtp3670
sbF0.25
tp3671
a(F0.5
(imusical.theory.chord
Chord
(dp3672
g8
((imusical.theory.note
Note
(dp3673
g10
I50
sbtp3674
sbF0.25
tp3675
a(F0.75
(imusical.theory.chord
Chord
(dp3676
g8
((imusical.theory.note
Note
(dp3677
g10
I59
sbtp3678
sbF0.25
tp3679
a(F1
(imusical.theory.chord
Chord
(dp3680
g8
((imusical.theory.note
Note
(dp3681
g10
I52
sbtp3682
sbF0.25
tp3683
a(F1.25
(imusical.theory.chord
Chord
(dp3684
g8
((imusical.theory.note
Note
(dp3685
g10
I45
sbtp3686
sbF0.25
tp3687
a(F1.5
(imusical.theory.chord
Chord
(dp3688
g8
((imusical.theory.note
Note
(dp3689
g10
I42
sbtp3690
sbF0.25
tp3691
a(F1.75
(imusical.theory.chord
Chord
(dp3692
g8
((imusical.theory.note
Note
(dp3693
g10
I45
sbtp3694
sbF0.25
tp3695
a(F2
(imusical.theory.chord
Chord
(dp3696
g8
((imusical.theory.note
Note
(dp3697
g10
I54
sbtp3698
sbF0.25
tp3699
a(F2.25
(imusical.theory.chord
Chord
(dp3700
g8
((imusical.theory.note
Note
(dp3701
g10
I38
sbtp3702
sbF0.25
tp3703
a(F2.5
(imusical.theory.chord
Chord
(dp3704
g8
((imusical.theory.note
Note
(dp3705
g10
I31
sbtp3706
sbF0.25
tp3707
a(F2.75
(imusical.theory.chord
Chord
(dp3708
g8
((imusical.theory.note
Note
(dp3709
g10
I35
sbtp3710
sbF0.25
tp3711
a(F3
(imusical.theory.chord
Chord
(dp3712
g8
((imusical.theory.note
Note
(dp3713
g10
I59
sbtp3714
sbF0.25
tp3715
a(F3.25
(imusical.theory.chord
Chord
(dp3716
g8
((imusical.theory.note
Note
(dp3717
g10
I37
sbtp3718
sbF0.25
tp3719
a(F3.5
(imusical.theory.chord
Chord
(dp3720
g8
((imusical.theory.note
Note
(dp3721
g10
I35
sbtp3722
sbF0.25
tp3723
a(F3.75
(imusical.theory.chord
Chord
(dp3724
g8
((imusical.theory.note
Note
(dp3725
g10
I31
sbtp3726
sbF0.25
tp3727
asg97
g98
(g100
S'\x8c\xea\x1eG'
tRp3728
sg102
g103
sg104
S'song-3V5-20.wav'
p3729
sg106
F163.87140703201294
sg107
(lp3730
(F0
(imusical.theory.chord
Chord
(dp3731
g8
((imusical.theory.note
Note
(dp3732
g10
I38
sb(imusical.theory.note
Note
(dp3733
g10
I42
sb(imusical.theory.note
Note
(dp3734
g10
I45
sbtp3735
sbF1
tp3736
a(F1
(imusical.theory.chord
Chord
(dp3737
g8
((imusical.theory.note
Note
(dp3738
g10
I45
sb(imusical.theory.note
Note
(dp3739
g10
I49
sb(imusical.theory.note
Note
(dp3740
g10
I52
sbtp3741
sbF1
tp3742
a(F2
(imusical.theory.chord
Chord
(dp3743
g8
((imusical.theory.note
Note
(dp3744
g10
I47
sb(imusical.theory.note
Note
(dp3745
g10
I50
sb(imusical.theory.note
Note
(dp3746
g10
I54
sbtp3747
sbF1
tp3748
a(F3
(imusical.theory.chord
Chord
(dp3749
g8
((imusical.theory.note
Note
(dp3750
g10
I43
sb(imusical.theory.note
Note
(dp3751
g10
I47
sb(imusical.theory.note
Note
(dp3752
g10
I50
sbtp3753
sbF1
tp3754
a(F0
(imusical.theory.chord
Chord
(dp3755
g8
((imusical.theory.note
Note
(dp3756
g10
I57
sbtp3757
sbF0.25
tp3758
a(F0.25
(imusical.theory.chord
Chord
(dp3759
g8
((imusical.theory.note
Note
(dp3760
g10
I55
sbtp3761
sbF0.25
tp3762
a(F0.5
(imusical.theory.chord
Chord
(dp3763
g8
((imusical.theory.note
Note
(dp3764
g10
I50
sbtp3765
sbF0.25
tp3766
a(F0.75
(imusical.theory.chord
Chord
(dp3767
g8
((imusical.theory.note
Note
(dp3768
g10
I54
sbtp3769
sbF0.25
tp3770
a(F1
(imusical.theory.chord
Chord
(dp3771
g8
((imusical.theory.note
Note
(dp3772
g10
I52
sbtp3773
sbF0.25
tp3774
a(F1.25
(imusical.theory.chord
Chord
(dp3775
g8
((imusical.theory.note
Note
(dp3776
g10
I45
sbtp3777
sbF0.25
tp3778
a(F1.5
(imusical.theory.chord
Chord
(dp3779
g8
((imusical.theory.note
Note
(dp3780
g10
I42
sbtp3781
sbF0.25
tp3782
a(F1.75
(imusical.theory.chord
Chord
(dp3783
g8
((imusical.theory.note
Note
(dp3784
g10
I45
sbtp3785
sbF0.25
tp3786
a(F2
(imusical.theory.chord
Chord
(dp3787
g8
((imusical.theory.note
Note
(dp3788
g10
I47
sbtp3789
sbF0.25
tp3790
a(F2.25
(imusical.theory.chord
Chord
(dp3791
g8
((imusical.theory.note
Note
(dp3792
g10
I38
sbtp3793
sbF0.25
tp3794
a(F2.5
(imusical.theory.chord
Chord
(dp3795
g8
((imusical.theory.note
Note
(dp3796
g10
I31
sbtp3797
sbF0.25
tp3798
a(F2.75
(imusical.theory.chord
Chord
(dp3799
g8
((imusical.theory.note
Note
(dp3800
g10
I35
sbtp3801
sbF0.25
tp3802
a(F3
(imusical.theory.chord
Chord
(dp3803
g8
((imusical.theory.note
Note
(dp3804
g10
I38
sbtp3805
sbF0.25
tp3806
a(F3.25
(imusical.theory.chord
Chord
(dp3807
g8
((imusical.theory.note
Note
(dp3808
g10
I37
sbtp3809
sbF0.25
tp3810
a(F3.5
(imusical.theory.chord
Chord
(dp3811
g8
((imusical.theory.note
Note
(dp3812
g10
I35
sbtp3813
sbF0.25
tp3814
a(F3.75
(imusical.theory.chord
Chord
(dp3815
g8
((imusical.theory.note
Note
(dp3816
g10
I31
sbtp3817
sbF0.25
tp3818
asg197
I800
sg198
F12.855203226709408
sa(dp3819
g3
g4
sg5
(lp3820
(F0
(imusical.theory.chord
Chord
(dp3821
g8
((imusical.theory.note
Note
(dp3822
g10
I40
sb(imusical.theory.note
Note
(dp3823
g10
I44
sb(imusical.theory.note
Note
(dp3824
g10
I47
sbtp3825
sbF1
tp3826
a(F1
(imusical.theory.chord
Chord
(dp3827
g8
((imusical.theory.note
Note
(dp3828
g10
I47
sb(imusical.theory.note
Note
(dp3829
g10
I51
sb(imusical.theory.note
Note
(dp3830
g10
I54
sbtp3831
sbF1
tp3832
a(F2
(imusical.theory.chord
Chord
(dp3833
g8
((imusical.theory.note
Note
(dp3834
g10
I49
sb(imusical.theory.note
Note
(dp3835
g10
I52
sb(imusical.theory.note
Note
(dp3836
g10
I56
sbtp3837
sbF1
tp3838
a(F3
(imusical.theory.chord
Chord
(dp3839
g8
((imusical.theory.note
Note
(dp3840
g10
I45
sb(imusical.theory.note
Note
(dp3841
g10
I49
sb(imusical.theory.note
Note
(dp3842
g10
I52
sbtp3843
sbF1
tp3844
a(F0
(imusical.theory.chord
Chord
(dp3845
g8
((imusical.theory.note
Note
(dp3846
g10
I40
sbtp3847
sbF0.25
tp3848
a(F0.25
(imusical.theory.chord
Chord
(dp3849
g8
((imusical.theory.note
Note
(dp3850
g10
I49
sbtp3851
sbF0.25
tp3852
a(F0.5
(imusical.theory.chord
Chord
(dp3853
g8
((imusical.theory.note
Note
(dp3854
g10
I51
sbtp3855
sbF0.25
tp3856
a(F0.75
(imusical.theory.chord
Chord
(dp3857
g8
((imusical.theory.note
Note
(dp3858
g10
I52
sbtp3859
sbF0.25
tp3860
a(F1
(imusical.theory.chord
Chord
(dp3861
g8
((imusical.theory.note
Note
(dp3862
g10
I56
sbtp3863
sbF0.25
tp3864
a(F1.25
(imusical.theory.chord
Chord
(dp3865
g8
((imusical.theory.note
Note
(dp3866
g10
I49
sbtp3867
sbF0.25
tp3868
a(F1.5
(imusical.theory.chord
Chord
(dp3869
g8
((imusical.theory.note
Note
(dp3870
g10
I49
sbtp3871
sbF0.25
tp3872
a(F1.75
(imusical.theory.chord
Chord
(dp3873
g8
((imusical.theory.note
Note
(dp3874
g10
I56
sbtp3875
sbF0.25
tp3876
a(F2
(imusical.theory.chord
Chord
(dp3877
g8
((imusical.theory.note
Note
(dp3878
g10
I57
sbtp3879
sbF0.25
tp3880
a(F2.25
(imusical.theory.chord
Chord
(dp3881
g8
((imusical.theory.note
Note
(dp3882
g10
I57
sbtp3883
sbF0.25
tp3884
a(F2.5
(imusical.theory.chord
Chord
(dp3885
g8
((imusical.theory.note
Note
(dp3886
g10
I63
sbtp3887
sbF0.25
tp3888
a(F2.75
(imusical.theory.chord
Chord
(dp3889
g8
((imusical.theory.note
Note
(dp3890
g10
I59
sbtp3891
sbF0.25
tp3892
a(F3
(imusical.theory.chord
Chord
(dp3893
g8
((imusical.theory.note
Note
(dp3894
g10
I61
sbtp3895
sbF0.25
tp3896
a(F3.25
(imusical.theory.chord
Chord
(dp3897
g8
((imusical.theory.note
Note
(dp3898
g10
I56
sbtp3899
sbF0.25
tp3900
a(F3.5
(imusical.theory.chord
Chord
(dp3901
g8
((imusical.theory.note
Note
(dp3902
g10
I57
sbtp3903
sbF0.25
tp3904
a(F3.75
(imusical.theory.chord
Chord
(dp3905
g8
((imusical.theory.note
Note
(dp3906
g10
I52
sbtp3907
sbF0.25
tp3908
asg97
g98
(g100
S'\x1e\xe8\xc0F'
tRp3909
sg102
g103
sg104
S'song-3V5-21.wav'
p3910
sg106
F193.96185207366943
sg107
(lp3911
(F0
(imusical.theory.chord
Chord
(dp3912
g8
((imusical.theory.note
Note
(dp3913
g10
I40
sb(imusical.theory.note
Note
(dp3914
g10
I44
sb(imusical.theory.note
Note
(dp3915
g10
I47
sbtp3916
sbF1
tp3917
a(F1
(imusical.theory.chord
Chord
(dp3918
g8
((imusical.theory.note
Note
(dp3919
g10
I47
sb(imusical.theory.note
Note
(dp3920
g10
I51
sb(imusical.theory.note
Note
(dp3921
g10
I54
sbtp3922
sbF1
tp3923
a(F2
(imusical.theory.chord
Chord
(dp3924
g8
((imusical.theory.note
Note
(dp3925
g10
I49
sb(imusical.theory.note
Note
(dp3926
g10
I52
sb(imusical.theory.note
Note
(dp3927
g10
I56
sbtp3928
sbF1
tp3929
a(F3
(imusical.theory.chord
Chord
(dp3930
g8
((imusical.theory.note
Note
(dp3931
g10
I45
sb(imusical.theory.note
Note
(dp3932
g10
I49
sb(imusical.theory.note
Note
(dp3933
g10
I52
sbtp3934
sbF1
tp3935
a(F0
(imusical.theory.chord
Chord
(dp3936
g8
((imusical.theory.note
Note
(dp3937
g10
I49
sbtp3938
sbF0.25
tp3939
a(F0.25
(imusical.theory.chord
Chord
(dp3940
g8
((imusical.theory.note
Note
(dp3941
g10
I49
sbtp3942
sbF0.25
tp3943
a(F0.5
(imusical.theory.chord
Chord
(dp3944
g8
((imusical.theory.note
Note
(dp3945
g10
I51
sbtp3946
sbF0.25
tp3947
a(F0.75
(imusical.theory.chord
Chord
(dp3948
g8
((imusical.theory.note
Note
(dp3949
g10
I52
sbtp3950
sbF0.25
tp3951
a(F1
(imusical.theory.chord
Chord
(dp3952
g8
((imusical.theory.note
Note
(dp3953
g10
I49
sbtp3954
sbF0.25
tp3955
a(F1.25
(imusical.theory.chord
Chord
(dp3956
g8
((imusical.theory.note
Note
(dp3957
g10
I49
sbtp3958
sbF0.25
tp3959
a(F1.5
(imusical.theory.chord
Chord
(dp3960
g8
((imusical.theory.note
Note
(dp3961
g10
I49
sbtp3962
sbF0.25
tp3963
a(F1.75
(imusical.theory.chord
Chord
(dp3964
g8
((imusical.theory.note
Note
(dp3965
g10
I56
sbtp3966
sbF0.25
tp3967
a(F2
(imusical.theory.chord
Chord
(dp3968
g8
((imusical.theory.note
Note
(dp3969
g10
I57
sbtp3970
sbF0.25
tp3971
a(F2.25
(imusical.theory.chord
Chord
(dp3972
g8
((imusical.theory.note
Note
(dp3973
g10
I57
sbtp3974
sbF0.25
tp3975
a(F2.5
(imusical.theory.chord
Chord
(dp3976
g8
((imusical.theory.note
Note
(dp3977
g10
I63
sbtp3978
sbF0.25
tp3979
a(F2.75
(imusical.theory.chord
Chord
(dp3980
g8
((imusical.theory.note
Note
(dp3981
g10
I61
sbtp3982
sbF0.25
tp3983
a(F3
(imusical.theory.chord
Chord
(dp3984
g8
((imusical.theory.note
Note
(dp3985
g10
I61
sbtp3986
sbF0.25
tp3987
a(F3.25
(imusical.theory.chord
Chord
(dp3988
g8
((imusical.theory.note
Note
(dp3989
g10
I56
sbtp3990
sbF0.25
tp3991
a(F3.5
(imusical.theory.chord
Chord
(dp3992
g8
((imusical.theory.note
Note
(dp3993
g10
I57
sbtp3994
sbF0.25
tp3995
a(F3.75
(imusical.theory.chord
Chord
(dp3996
g8
((imusical.theory.note
Note
(dp3997
g10
I52
sbtp3998
sbF0.25
tp3999
asg197
I800
sg198
F10.486002574861404
sa(dp4000
g3
g4
sg5
(lp4001
(F0
(imusical.theory.chord
Chord
(dp4002
g8
((imusical.theory.note
Note
(dp4003
g10
I42
sb(imusical.theory.note
Note
(dp4004
g10
I46
sb(imusical.theory.note
Note
(dp4005
g10
I49
sbtp4006
sbF1
tp4007
a(F1
(imusical.theory.chord
Chord
(dp4008
g8
((imusical.theory.note
Note
(dp4009
g10
I49
sb(imusical.theory.note
Note
(dp4010
g10
I53
sb(imusical.theory.note
Note
(dp4011
g10
I56
sbtp4012
sbF1
tp4013
a(F2
(imusical.theory.chord
Chord
(dp4014
g8
((imusical.theory.note
Note
(dp4015
g10
I44
sb(imusical.theory.note
Note
(dp4016
g10
I47
sb(imusical.theory.note
Note
(dp4017
g10
I51
sbtp4018
sbF1
tp4019
a(F3
(imusical.theory.chord
Chord
(dp4020
g8
((imusical.theory.note
Note
(dp4021
g10
I44
sb(imusical.theory.note
Note
(dp4022
g10
I47
sb(imusical.theory.note
Note
(dp4023
g10
I51
sbtp4024
sbF1
tp4025
a(F0
(imusical.theory.chord
Chord
(dp4026
g8
((imusical.theory.note
Note
(dp4027
g10
I54
sbtp4028
sbF0.25
tp4029
a(F0.25
(imusical.theory.chord
Chord
(dp4030
g8
((imusical.theory.note
Note
(dp4031
g10
I56
sbtp4032
sbF0.25
tp4033
a(F0.5
(imusical.theory.chord
Chord
(dp4034
g8
((imusical.theory.note
Note
(dp4035
g10
I53
sbtp4036
sbF0.25
tp4037
a(F0.75
(imusical.theory.chord
Chord
(dp4038
g8
((imusical.theory.note
Note
(dp4039
g10
I53
sbtp4040
sbF0.25
tp4041
a(F1
(imusical.theory.chord
Chord
(dp4042
g8
((imusical.theory.note
Note
(dp4043
g10
I56
sbtp4044
sbF0.25
tp4045
a(F1.25
(imusical.theory.chord
Chord
(dp4046
g8
((imusical.theory.note
Note
(dp4047
g10
I53
sbtp4048
sbF0.25
tp4049
a(F1.5
(imusical.theory.chord
Chord
(dp4050
g8
((imusical.theory.note
Note
(dp4051
g10
I49
sbtp4052
sbF0.25
tp4053
a(F1.75
(imusical.theory.chord
Chord
(dp4054
g8
((imusical.theory.note
Note
(dp4055
g10
I49
sbtp4056
sbF0.25
tp4057
a(F2
(imusical.theory.chord
Chord
(dp4058
g8
((imusical.theory.note
Note
(dp4059
g10
I44
sbtp4060
sbF0.25
tp4061
a(F2.25
(imusical.theory.chord
Chord
(dp4062
g8
((imusical.theory.note
Note
(dp4063
g10
I35
sbtp4064
sbF0.25
tp4065
a(F2.5
(imusical.theory.chord
Chord
(dp4066
g8
((imusical.theory.note
Note
(dp4067
g10
I37
sbtp4068
sbF0.25
tp4069
a(F2.75
(imusical.theory.chord
Chord
(dp4070
g8
((imusical.theory.note
Note
(dp4071
g10
I35
sbtp4072
sbF0.25
tp4073
a(F3
(imusical.theory.chord
Chord
(dp4074
g8
((imusical.theory.note
Note
(dp4075
g10
I54
sbtp4076
sbF0.25
tp4077
a(F3.25
(imusical.theory.chord
Chord
(dp4078
g8
((imusical.theory.note
Note
(dp4079
g10
I35
sbtp4080
sbF0.25
tp4081
a(F3.5
(imusical.theory.chord
Chord
(dp4082
g8
((imusical.theory.note
Note
(dp4083
g10
I37
sbtp4084
sbF0.25
tp4085
a(F3.75
(imusical.theory.chord
Chord
(dp4086
g8
((imusical.theory.note
Note
(dp4087
g10
I37
sbtp4088
sbF0.25
tp4089
asg97
g98
(g100
S'!\xcb\xeeF'
tRp4090
sg102
g103
sg104
S'song-3V5-22.wav'
p4091
sg106
F166.24899697303772
sg107
(lp4092
(F0
(imusical.theory.chord
Chord
(dp4093
g8
((imusical.theory.note
Note
(dp4094
g10
I42
sb(imusical.theory.note
Note
(dp4095
g10
I46
sb(imusical.theory.note
Note
(dp4096
g10
I49
sbtp4097
sbF1
tp4098
a(F1
(imusical.theory.chord
Chord
(dp4099
g8
((imusical.theory.note
Note
(dp4100
g10
I49
sb(imusical.theory.note
Note
(dp4101
g10
I53
sb(imusical.theory.note
Note
(dp4102
g10
I56
sbtp4103
sbF1
tp4104
a(F2
(imusical.theory.chord
Chord
(dp4105
g8
((imusical.theory.note
Note
(dp4106
g10
I51
sb(imusical.theory.note
Note
(dp4107
g10
I54
sb(imusical.theory.note
Note
(dp4108
g10
I58
sbtp4109
sbF1
tp4110
a(F3
(imusical.theory.chord
Chord
(dp4111
g8
((imusical.theory.note
Note
(dp4112
g10
I47
sb(imusical.theory.note
Note
(dp4113
g10
I51
sb(imusical.theory.note
Note
(dp4114
g10
I54
sbtp4115
sbF1
tp4116
a(F0
(imusical.theory.chord
Chord
(dp4117
g8
((imusical.theory.note
Note
(dp4118
g10
I54
sbtp4119
sbF0.25
tp4120
a(F0.25
(imusical.theory.chord
Chord
(dp4121
g8
((imusical.theory.note
Note
(dp4122
g10
I56
sbtp4123
sbF0.25
tp4124
a(F0.5
(imusical.theory.chord
Chord
(dp4125
g8
((imusical.theory.note
Note
(dp4126
g10
I53
sbtp4127
sbF0.25
tp4128
a(F0.75
(imusical.theory.chord
Chord
(dp4129
g8
((imusical.theory.note
Note
(dp4130
g10
I53
sbtp4131
sbF0.25
tp4132
a(F1
(imusical.theory.chord
Chord
(dp4133
g8
((imusical.theory.note
Note
(dp4134
g10
I49
sbtp4135
sbF0.25
tp4136
a(F1.25
(imusical.theory.chord
Chord
(dp4137
g8
((imusical.theory.note
Note
(dp4138
g10
I53
sbtp4139
sbF0.25
tp4140
a(F1.5
(imusical.theory.chord
Chord
(dp4141
g8
((imusical.theory.note
Note
(dp4142
g10
I49
sbtp4143
sbF0.25
tp4144
a(F1.75
(imusical.theory.chord
Chord
(dp4145
g8
((imusical.theory.note
Note
(dp4146
g10
I49
sbtp4147
sbF0.25
tp4148
a(F2
(imusical.theory.chord
Chord
(dp4149
g8
((imusical.theory.note
Note
(dp4150
g10
I44
sbtp4151
sbF0.25
tp4152
a(F2.25
(imusical.theory.chord
Chord
(dp4153
g8
((imusical.theory.note
Note
(dp4154
g10
I35
sbtp4155
sbF0.25
tp4156
a(F2.5
(imusical.theory.chord
Chord
(dp4157
g8
((imusical.theory.note
Note
(dp4158
g10
I37
sbtp4159
sbF0.25
tp4160
a(F2.75
(imusical.theory.chord
Chord
(dp4161
g8
((imusical.theory.note
Note
(dp4162
g10
I35
sbtp4163
sbF0.25
tp4164
a(F3
(imusical.theory.chord
Chord
(dp4165
g8
((imusical.theory.note
Note
(dp4166
g10
I41
sbtp4167
sbF0.25
tp4168
a(F3.25
(imusical.theory.chord
Chord
(dp4169
g8
((imusical.theory.note
Note
(dp4170
g10
I35
sbtp4171
sbF0.25
tp4172
a(F3.5
(imusical.theory.chord
Chord
(dp4173
g8
((imusical.theory.note
Note
(dp4174
g10
I37
sbtp4175
sbF0.25
tp4176
a(F3.75
(imusical.theory.chord
Chord
(dp4177
g8
((imusical.theory.note
Note
(dp4178
g10
I37
sbtp4179
sbF0.25
tp4180
asg197
I800
sg198
F11.285222638477276
sa(dp4181
g3
g4
sg5
(lp4182
(F0
(imusical.theory.chord
Chord
(dp4183
g8
((imusical.theory.note
Note
(dp4184
g10
I43
sb(imusical.theory.note
Note
(dp4185
g10
I47
sb(imusical.theory.note
Note
(dp4186
g10
I50
sbtp4187
sbF1
tp4188
a(F1
(imusical.theory.chord
Chord
(dp4189
g8
((imusical.theory.note
Note
(dp4190
g10
I50
sb(imusical.theory.note
Note
(dp4191
g10
I54
sb(imusical.theory.note
Note
(dp4192
g10
I57
sbtp4193
sbF1
tp4194
a(F2
(imusical.theory.chord
Chord
(dp4195
g8
((imusical.theory.note
Note
(dp4196
g10
I48
sb(imusical.theory.note
Note
(dp4197
g10
I52
sb(imusical.theory.note
Note
(dp4198
g10
I55
sbtp4199
sbF1
tp4200
a(F3
(imusical.theory.chord
Chord
(dp4201
g8
((imusical.theory.note
Note
(dp4202
g10
I52
sb(imusical.theory.note
Note
(dp4203
g10
I55
sb(imusical.theory.note
Note
(dp4204
g10
I59
sbtp4205
sbF1
tp4206
a(F0
(imusical.theory.chord
Chord
(dp4207
g8
((imusical.theory.note
Note
(dp4208
g10
I43
sbtp4209
sbF0.25
tp4210
a(F0.25
(imusical.theory.chord
Chord
(dp4211
g8
((imusical.theory.note
Note
(dp4212
g10
I54
sbtp4213
sbF0.25
tp4214
a(F0.5
(imusical.theory.chord
Chord
(dp4215
g8
((imusical.theory.note
Note
(dp4216
g10
I50
sbtp4217
sbF0.25
tp4218
a(F0.75
(imusical.theory.chord
Chord
(dp4219
g8
((imusical.theory.note
Note
(dp4220
g10
I48
sbtp4221
sbF0.25
tp4222
a(F1
(imusical.theory.chord
Chord
(dp4223
g8
((imusical.theory.note
Note
(dp4224
g10
I48
sbtp4225
sbF0.25
tp4226
a(F1.25
(imusical.theory.chord
Chord
(dp4227
g8
((imusical.theory.note
Note
(dp4228
g10
I42
sbtp4229
sbF0.25
tp4230
a(F1.5
(imusical.theory.chord
Chord
(dp4231
g8
((imusical.theory.note
Note
(dp4232
g10
I47
sbtp4233
sbF0.25
tp4234
a(F1.75
(imusical.theory.chord
Chord
(dp4235
g8
((imusical.theory.note
Note
(dp4236
g10
I48
sbtp4237
sbF0.25
tp4238
a(F2
(imusical.theory.chord
Chord
(dp4239
g8
((imusical.theory.note
Note
(dp4240
g10
I59
sbtp4241
sbF0.25
tp4242
a(F2.25
(imusical.theory.chord
Chord
(dp4243
g8
((imusical.theory.note
Note
(dp4244
g10
I50
sbtp4245
sbF0.25
tp4246
a(F2.5
(imusical.theory.chord
Chord
(dp4247
g8
((imusical.theory.note
Note
(dp4248
g10
I52
sbtp4249
sbF0.25
tp4250
a(F2.75
(imusical.theory.chord
Chord
(dp4251
g8
((imusical.theory.note
Note
(dp4252
g10
I43
sbtp4253
sbF0.25
tp4254
a(F3
(imusical.theory.chord
Chord
(dp4255
g8
((imusical.theory.note
Note
(dp4256
g10
I48
sbtp4257
sbF0.25
tp4258
a(F3.25
(imusical.theory.chord
Chord
(dp4259
g8
((imusical.theory.note
Note
(dp4260
g10
I55
sbtp4261
sbF0.25
tp4262
a(F3.5
(imusical.theory.chord
Chord
(dp4263
g8
((imusical.theory.note
Note
(dp4264
g10
I54
sbtp4265
sbF0.25
tp4266
a(F3.75
(imusical.theory.chord
Chord
(dp4267
g8
((imusical.theory.note
Note
(dp4268
g10
I55
sbtp4269
sbF0.25
tp4270
asg97
g98
(g100
S'\xfc#\x1cG'
tRp4271
sg102
g103
sg104
S'song-3V5-23.wav'
p4272
sg106
F165.72066187858582
sg107
(lp4273
(F0
(imusical.theory.chord
Chord
(dp4274
g8
((imusical.theory.note
Note
(dp4275
g10
I43
sb(imusical.theory.note
Note
(dp4276
g10
I47
sb(imusical.theory.note
Note
(dp4277
g10
I50
sbtp4278
sbF1
tp4279
a(F1
(imusical.theory.chord
Chord
(dp4280
g8
((imusical.theory.note
Note
(dp4281
g10
I50
sb(imusical.theory.note
Note
(dp4282
g10
I54
sb(imusical.theory.note
Note
(dp4283
g10
I57
sbtp4284
sbF1
tp4285
a(F2
(imusical.theory.chord
Chord
(dp4286
g8
((imusical.theory.note
Note
(dp4287
g10
I52
sb(imusical.theory.note
Note
(dp4288
g10
I55
sb(imusical.theory.note
Note
(dp4289
g10
I59
sbtp4290
sbF1
tp4291
a(F3
(imusical.theory.chord
Chord
(dp4292
g8
((imusical.theory.note
Note
(dp4293
g10
I48
sb(imusical.theory.note
Note
(dp4294
g10
I52
sb(imusical.theory.note
Note
(dp4295
g10
I55
sbtp4296
sbF1
tp4297
a(F0
(imusical.theory.chord
Chord
(dp4298
g8
((imusical.theory.note
Note
(dp4299
g10
I55
sbtp4300
sbF0.25
tp4301
a(F0.25
(imusical.theory.chord
Chord
(dp4302
g8
((imusical.theory.note
Note
(dp4303
g10
I54
sbtp4304
sbF0.25
tp4305
a(F0.5
(imusical.theory.chord
Chord
(dp4306
g8
((imusical.theory.note
Note
(dp4307
g10
I50
sbtp4308
sbF0.25
tp4309
a(F0.75
(imusical.theory.chord
Chord
(dp4310
g8
((imusical.theory.note
Note
(dp4311
g10
I48
sbtp4312
sbF0.25
tp4313
a(F1
(imusical.theory.chord
Chord
(dp4314
g8
((imusical.theory.note
Note
(dp4315
g10
I48
sbtp4316
sbF0.25
tp4317
a(F1.25
(imusical.theory.chord
Chord
(dp4318
g8
((imusical.theory.note
Note
(dp4319
g10
I42
sbtp4320
sbF0.25
tp4321
a(F1.5
(imusical.theory.chord
Chord
(dp4322
g8
((imusical.theory.note
Note
(dp4323
g10
I47
sbtp4324
sbF0.25
tp4325
a(F1.75
(imusical.theory.chord
Chord
(dp4326
g8
((imusical.theory.note
Note
(dp4327
g10
I48
sbtp4328
sbF0.25
tp4329
a(F2
(imusical.theory.chord
Chord
(dp4330
g8
((imusical.theory.note
Note
(dp4331
g10
I47
sbtp4332
sbF0.25
tp4333
a(F2.25
(imusical.theory.chord
Chord
(dp4334
g8
((imusical.theory.note
Note
(dp4335
g10
I50
sbtp4336
sbF0.25
tp4337
a(F2.5
(imusical.theory.chord
Chord
(dp4338
g8
((imusical.theory.note
Note
(dp4339
g10
I52
sbtp4340
sbF0.25
tp4341
a(F2.75
(imusical.theory.chord
Chord
(dp4342
g8
((imusical.theory.note
Note
(dp4343
g10
I43
sbtp4344
sbF0.25
tp4345
a(F3
(imusical.theory.chord
Chord
(dp4346
g8
((imusical.theory.note
Note
(dp4347
g10
I48
sbtp4348
sbF0.25
tp4349
a(F3.25
(imusical.theory.chord
Chord
(dp4350
g8
((imusical.theory.note
Note
(dp4351
g10
I55
sbtp4352
sbF0.25
tp4353
a(F3.5
(imusical.theory.chord
Chord
(dp4354
g8
((imusical.theory.note
Note
(dp4355
g10
I54
sbtp4356
sbF0.25
tp4357
a(F3.75
(imusical.theory.chord
Chord
(dp4358
g8
((imusical.theory.note
Note
(dp4359
g10
I55
sbtp4360
sbF0.25
tp4361
asg197
I800
sg198
F10.171344552221205
sa(dp4362
g3
g4
sg5
(lp4363
(F0
(imusical.theory.chord
Chord
(dp4364
g8
((imusical.theory.note
Note
p4365
(dp4366
g10
I36
sb(imusical.theory.note
Note
p4367
(dp4368
g10
I40
sb(imusical.theory.note
Note
p4369
(dp4370
g10
I43
sbtp4371
sbF1
tp4372
a(F1
(imusical.theory.chord
Chord
(dp4373
g8
((imusical.theory.note
Note
p4374
(dp4375
g10
I43
sb(imusical.theory.note
Note
p4376
(dp4377
g10
I47
sb(imusical.theory.note
Note
p4378
(dp4379
g10
I50
sbtp4380
sbF1
tp4381
a(F2
(imusical.theory.chord
Chord
(dp4382
g8
((imusical.theory.note
Note
p4383
(dp4384
g10
I41
sb(imusical.theory.note
Note
p4385
(dp4386
g10
I45
sb(imusical.theory.note
Note
p4387
(dp4388
g10
I48
sbtp4389
sbF1
tp4390
a(F3
(imusical.theory.chord
Chord
(dp4391
g8
((imusical.theory.note
Note
p4392
(dp4393
g10
I34
sb(imusical.theory.note
Note
p4394
(dp4395
g10
I38
sb(imusical.theory.note
Note
p4396
(dp4397
g10
I41
sbtp4398
sbF1
tp4399
a(F0
(imusical.theory.chord
Chord
(dp4400
g8
((imusical.theory.note
Note
p4401
(dp4402
g10
I47
sbtp4403
sbF0.25
tp4404
a(F0.25
(imusical.theory.chord
Chord
(dp4405
g8
((imusical.theory.note
Note
p4406
(dp4407
g10
I55
sbtp4408
sbF0.25
tp4409
a(F0.5
(imusical.theory.chord
Chord
(dp4410
g8
((imusical.theory.note
Note
p4411
(dp4412
g10
I53
sbtp4413
sbF0.25
tp4414
a(F0.75
(imusical.theory.chord
Chord
(dp4415
g8
((imusical.theory.note
Note
p4416
(dp4417
g10
I52
sbtp4418
sbF0.25
tp4419
a(F1
(imusical.theory.chord
Chord
(dp4420
g8
((imusical.theory.note
Note
p4421
(dp4422
g10
I43
sbtp4423
sbF0.25
tp4424
a(F1.25
(imusical.theory.chord
Chord
(dp4425
g8
((imusical.theory.note
Note
p4426
(dp4427
g10
I41
sbtp4428
sbF0.25
tp4429
a(F1.5
(imusical.theory.chord
Chord
(dp4430
g8
((imusical.theory.note
Note
p4431
(dp4432
g10
I40
sbtp4433
sbF0.25
tp4434
a(F1.75
(imusical.theory.chord
Chord
(dp4435
g8
((imusical.theory.note
Note
p4436
(dp4437
g10
I35
sbtp4438
sbF0.25
tp4439
a(F2
(imusical.theory.chord
Chord
(dp4440
g8
((imusical.theory.note
Note
p4441
(dp4442
g10
I61
sbtp4443
sbF0.25
tp4444
a(F2.25
(imusical.theory.chord
Chord
(dp4445
g8
((imusical.theory.note
Note
p4446
(dp4447
g10
I40
sbtp4448
sbF0.25
tp4449
a(F2.5
(imusical.theory.chord
Chord
(dp4450
g8
((imusical.theory.note
Note
p4451
(dp4452
g10
I38
sbtp4453
sbF0.25
tp4454
a(F2.75
(imusical.theory.chord
Chord
(dp4455
g8
((imusical.theory.note
Note
p4456
(dp4457
g10
I40
sbtp4458
sbF0.25
tp4459
a(F3
(imusical.theory.chord
Chord
(dp4460
g8
((imusical.theory.note
Note
p4461
(dp4462
g10
I45
sbtp4463
sbF0.25
tp4464
a(F3.25
(imusical.theory.chord
Chord
(dp4465
g8
((imusical.theory.note
Note
p4466
(dp4467
g10
I35
sbtp4468
sbF0.25
tp4469
a(F3.5
(imusical.theory.chord
Chord
(dp4470
g8
((imusical.theory.note
Note
p4471
(dp4472
g10
I36
sbtp4473
sbF0.25
tp4474
a(F3.75
(imusical.theory.chord
Chord
(dp4475
g8
((imusical.theory.note
Note
p4476
(dp4477
g10
I43
sbtp4478
sbF0.25
tp4479
asg97
g98
(g100
S'\xf4\xbb3G'
tRp4480
sg102
g103
sg104
S'song-3V5-24.wav'
p4481
sg106
F162.63243508338928
sg107
(lp4482
(F0
(imusical.theory.chord
Chord
(dp4483
g8
((imusical.theory.note
Note
p4484
(dp4485
g10
I36
sb(imusical.theory.note
Note
p4486
(dp4487
g10
I40
sb(imusical.theory.note
Note
p4488
(dp4489
g10
I43
sbtp4490
sbF1
tp4491
a(F1
(imusical.theory.chord
Chord
(dp4492
g8
((imusical.theory.note
Note
p4493
(dp4494
g10
I43
sb(imusical.theory.note
Note
p4495
(dp4496
g10
I47
sb(imusical.theory.note
Note
p4497
(dp4498
g10
I50
sbtp4499
sbF1
tp4500
a(F2
(imusical.theory.chord
Chord
(dp4501
g8
((imusical.theory.note
Note
p4502
(dp4503
g10
I45
sb(imusical.theory.note
Note
p4504
(dp4505
g10
I48
sb(imusical.theory.note
Note
p4506
(dp4507
g10
I52
sbtp4508
sbF1
tp4509
a(F3
(imusical.theory.chord
Chord
(dp4510
g8
((imusical.theory.note
Note
p4511
(dp4512
g10
I41
sb(imusical.theory.note
Note
p4513
(dp4514
g10
I45
sb(imusical.theory.note
Note
p4515
(dp4516
g10
I48
sbtp4517
sbF1
tp4518
a(F0
(imusical.theory.chord
Chord
(dp4519
g8
((imusical.theory.note
Note
p4520
(dp4521
g10
I50
sbtp4522
sbF0.25
tp4523
a(F0.25
(imusical.theory.chord
Chord
(dp4524
g8
((imusical.theory.note
Note
p4525
(dp4526
g10
I55
sbtp4527
sbF0.25
tp4528
a(F0.5
(imusical.theory.chord
Chord
(dp4529
g8
((imusical.theory.note
Note
p4530
(dp4531
g10
I53
sbtp4532
sbF0.25
tp4533
a(F0.75
(imusical.theory.chord
Chord
(dp4534
g8
((imusical.theory.note
Note
p4535
(dp4536
g10
I52
sbtp4537
sbF0.25
tp4538
a(F1
(imusical.theory.chord
Chord
(dp4539
g8
((imusical.theory.note
Note
p4540
(dp4541
g10
I48
sbtp4542
sbF0.25
tp4543
a(F1.25
(imusical.theory.chord
Chord
(dp4544
g8
((imusical.theory.note
Note
p4545
(dp4546
g10
I41
sbtp4547
sbF0.25
tp4548
a(F1.5
(imusical.theory.chord
Chord
(dp4549
g8
((imusical.theory.note
Note
p4550
(dp4551
g10
I40
sbtp4552
sbF0.25
tp4553
a(F1.75
(imusical.theory.chord
Chord
(dp4554
g8
((imusical.theory.note
Note
p4555
(dp4556
g10
I38
sbtp4557
sbF0.25
tp4558
a(F2
(imusical.theory.chord
Chord
(dp4559
g8
((imusical.theory.note
Note
p4560
(dp4561
g10
I41
sbtp4562
sbF0.25
tp4563
a(F2.25
(imusical.theory.chord
Chord
(dp4564
g8
((imusical.theory.note
Note
p4565
(dp4566
g10
I40
sbtp4567
sbF0.25
tp4568
a(F2.5
(imusical.theory.chord
Chord
(dp4569
g8
((imusical.theory.note
Note
p4570
(dp4571
g10
I38
sbtp4572
sbF0.25
tp4573
a(F2.75
(imusical.theory.chord
Chord
(dp4574
g8
((imusical.theory.note
Note
p4575
(dp4576
g10
I40
sbtp4577
sbF0.25
tp4578
a(F3
(imusical.theory.chord
Chord
(dp4579
g8
((imusical.theory.note
Note
p4580
(dp4581
g10
I33
sbtp4582
sbF0.25
tp4583
a(F3.25
(imusical.theory.chord
Chord
(dp4584
g8
((imusical.theory.note
Note
p4585
(dp4586
g10
I35
sbtp4587
sbF0.25
tp4588
a(F3.5
(imusical.theory.chord
Chord
(dp4589
g8
((imusical.theory.note
Note
p4590
(dp4591
g10
I36
sbtp4592
sbF0.25
tp4593
a(F3.75
(imusical.theory.chord
Chord
(dp4594
g8
((imusical.theory.note
Note
p4595
(dp4596
g10
I43
sbtp4597
sbF0.25
tp4598
asg197
I800
sg198
F12.411939816160888
sa.